   1               		.file	"i2csw.c"
   2               	__SREG__ = 0x3f
   3               	__SP_H__ = 0x3e
   4               	__SP_L__ = 0x3d
   5               	__CCP__  = 0x34
   6               	__tmp_reg__ = 0
   7               	__zero_reg__ = 1
  15               	.Ltext0:
  16               	.global	clk_delay
  18               	clk_delay:
  19               	.LFB3:
  20               	.LM1:
  21               	.LVL0:
  22 0000 00C0      		rjmp .L7
  23               	/* prologue: function */
  24               	/* frame size = 0 */
  25               	.L5:
  26               	.LM2:
  27               	/* #APP */
  28               	 ;  45 "i2csw.c" 1
  29 0002 0000      		nop
  30               	 ;  0 "" 2
  31               	/* #NOAPP */
  32 0004 8150      		subi r24,lo8(-(-1))
  33               	.LVL1:
  34               	.L7:
  35               	.LM3:
  36 0006 8823      		tst r24
  37 0008 01F4      		brne .L5
  38 000a 0895      		ret
  39               	.LFE3:
  41               	.global	i2cPutbyte
  43               	i2cPutbyte:
  44               	.LFB4:
  45               	.LM4:
  46               	.LVL2:
  47 000c EF92      		push r14
  48 000e FF92      		push r15
  49 0010 0F93      		push r16
  50 0012 1F93      		push r17
  51 0014 CF93      		push r28
  52 0016 DF93      		push r29
  53               	/* prologue: function */
  54               	/* frame size = 0 */
  55 0018 DC01      		movw r26,r24
  56               	.LM5:
  57 001a 062F      		mov r16,r22
  58 001c 10E0      		ldi r17,lo8(0)
  59 001e 47E0      		ldi r20,lo8(7)
  60 0020 50E0      		ldi r21,hi8(7)
  61               	.LM6:
  62 0022 61E0      		ldi r22,lo8(1)
  63 0024 70E0      		ldi r23,hi8(1)
  64               	.LVL3:
  65               	.L13:
  66               	.LM7:
  67 0026 C801      		movw r24,r16
  68 0028 042E      		mov r0,r20
  69 002a 00C0      		rjmp 2f
  70 002c 9595      	1:	asr r25
  71 002e 8795      		ror r24
  72 0030 0A94      	2:	dec r0
  73 0032 02F4      		brpl 1b
  74 0034 80FF      		sbrs r24,0
  75 0036 00C0      		rjmp .L10
  76               	.LM8:
  77 0038 1296      		adiw r26,2
  78 003a ED91      		ld r30,X+
  79 003c FC91      		ld r31,X
  80 003e 1397      		sbiw r26,2+1
  81 0040 2081      		ld r18,Z
  82 0042 CB01      		movw r24,r22
  83 0044 1696      		adiw r26,6
  84 0046 0C90      		ld r0,X
  85 0048 1697      		sbiw r26,6
  86 004a 00C0      		rjmp 2f
  87 004c 880F      	1:	lsl r24
  88 004e 991F      		rol r25
  89 0050 0A94      	2:	dec r0
  90 0052 02F4      		brpl 1b
  91 0054 282B      		or r18,r24
  92 0056 2083      		st Z,r18
  93               	.L11:
  94               	.LBB86:
  95               	.LBB87:
  96               	.LM9:
  97               	/* #APP */
  98               	 ;  45 "i2csw.c" 1
  99 0058 0000      		nop
 100               	 ;  0 "" 2
 101               	 ;  45 "i2csw.c" 1
 102 005a 0000      		nop
 103               	 ;  0 "" 2
 104               	 ;  45 "i2csw.c" 1
 105 005c 0000      		nop
 106               	 ;  0 "" 2
 107               	 ;  45 "i2csw.c" 1
 108 005e 0000      		nop
 109               	 ;  0 "" 2
 110               	 ;  45 "i2csw.c" 1
 111 0060 0000      		nop
 112               	 ;  0 "" 2
 113               	/* #NOAPP */
 114               	.LBE87:
 115               	.LBE86:
 116               	.LM10:
 117 0062 1996      		adiw r26,9
 118 0064 ED91      		ld r30,X+
 119 0066 FC91      		ld r31,X
 120 0068 1A97      		sbiw r26,9+1
 121 006a 2081      		ld r18,Z
 122 006c 1D96      		adiw r26,13
 123 006e 8C91      		ld r24,X
 124 0070 1D97      		sbiw r26,13
 125 0072 7B01      		movw r14,r22
 126 0074 00C0      		rjmp 2f
 127 0076 EE0C      	1:	lsl r14
 128 0078 FF1C      		rol r15
 129 007a 8A95      	2:	dec r24
 130 007c 02F4      		brpl 1b
 131 007e 2E29      		or r18,r14
 132 0080 2083      		st Z,r18
 133 0082 1796      		adiw r26,7
 134 0084 ED91      		ld r30,X+
 135 0086 FC91      		ld r31,X
 136 0088 1897      		sbiw r26,7+1
 137 008a 2081      		ld r18,Z
 138 008c 1D96      		adiw r26,13
 139 008e 8C91      		ld r24,X
 140 0090 1D97      		sbiw r26,13
 141 0092 EB01      		movw r28,r22
 142 0094 00C0      		rjmp 2f
 143 0096 CC0F      	1:	lsl r28
 144 0098 DD1F      		rol r29
 145 009a 8A95      	2:	dec r24
 146 009c 02F4      		brpl 1b
 147 009e CE01      		movw r24,r28
 148 00a0 8095      		com r24
 149 00a2 8223      		and r24,r18
 150 00a4 8083      		st Z,r24
 151 00a6 1B96      		adiw r26,11
 152 00a8 ED91      		ld r30,X+
 153 00aa FC91      		ld r31,X
 154 00ac 1C97      		sbiw r26,11+1
 155               	.L12:
 156 00ae 8081      		ld r24,Z
 157 00b0 1D96      		adiw r26,13
 158 00b2 2C91      		ld r18,X
 159 00b4 1D97      		sbiw r26,13
 160 00b6 90E0      		ldi r25,lo8(0)
 161 00b8 00C0      		rjmp 2f
 162 00ba 9595      	1:	asr r25
 163 00bc 8795      		ror r24
 164 00be 2A95      	2:	dec r18
 165 00c0 02F4      		brpl 1b
 166 00c2 80FF      		sbrs r24,0
 167 00c4 00C0      		rjmp .L12
 168 00c6 1796      		adiw r26,7
 169 00c8 ED91      		ld r30,X+
 170 00ca FC91      		ld r31,X
 171 00cc 1897      		sbiw r26,7+1
 172 00ce 2081      		ld r18,Z
 173 00d0 1D96      		adiw r26,13
 174 00d2 8C91      		ld r24,X
 175 00d4 1D97      		sbiw r26,13
 176 00d6 C1E0      		ldi r28,lo8(1)
 177 00d8 D0E0      		ldi r29,hi8(1)
 178 00da 7B01      		movw r14,r22
 179 00dc 00C0      		rjmp 2f
 180 00de EE0C      	1:	lsl r14
 181 00e0 FF1C      		rol r15
 182 00e2 8A95      	2:	dec r24
 183 00e4 02F4      		brpl 1b
 184 00e6 2E29      		or r18,r14
 185 00e8 2083      		st Z,r18
 186               	.LBB88:
 187               	.LBB89:
 188               	.LM11:
 189               	/* #APP */
 190               	 ;  45 "i2csw.c" 1
 191 00ea 0000      		nop
 192               	 ;  0 "" 2
 193               	 ;  45 "i2csw.c" 1
 194 00ec 0000      		nop
 195               	 ;  0 "" 2
 196               	 ;  45 "i2csw.c" 1
 197 00ee 0000      		nop
 198               	 ;  0 "" 2
 199               	 ;  45 "i2csw.c" 1
 200 00f0 0000      		nop
 201               	 ;  0 "" 2
 202               	 ;  45 "i2csw.c" 1
 203 00f2 0000      		nop
 204               	 ;  0 "" 2
 205               	 ;  45 "i2csw.c" 1
 206 00f4 0000      		nop
 207               	 ;  0 "" 2
 208               	 ;  45 "i2csw.c" 1
 209 00f6 0000      		nop
 210               	 ;  0 "" 2
 211               	 ;  45 "i2csw.c" 1
 212 00f8 0000      		nop
 213               	 ;  0 "" 2
 214               	 ;  45 "i2csw.c" 1
 215 00fa 0000      		nop
 216               	 ;  0 "" 2
 217               	/* #NOAPP */
 218               	.LBE89:
 219               	.LBE88:
 220               	.LM12:
 221 00fc 1996      		adiw r26,9
 222 00fe ED91      		ld r30,X+
 223 0100 FC91      		ld r31,X
 224 0102 1A97      		sbiw r26,9+1
 225 0104 2081      		ld r18,Z
 226 0106 1D96      		adiw r26,13
 227 0108 8C91      		ld r24,X
 228 010a 1D97      		sbiw r26,13
 229 010c 7B01      		movw r14,r22
 230 010e 00C0      		rjmp 2f
 231 0110 EE0C      	1:	lsl r14
 232 0112 FF1C      		rol r15
 233 0114 8A95      	2:	dec r24
 234 0116 02F4      		brpl 1b
 235 0118 C701      		movw r24,r14
 236 011a 8095      		com r24
 237 011c 8223      		and r24,r18
 238 011e 8083      		st Z,r24
 239 0120 4150      		subi r20,lo8(-(-1))
 240 0122 5040      		sbci r21,hi8(-(-1))
 241               	.LM13:
 242 0124 2FEF      		ldi r18,hi8(-1)
 243 0126 4F3F      		cpi r20,lo8(-1)
 244 0128 5207      		cpc r21,r18
 245 012a 01F0      		breq .+2
 246 012c 00C0      		rjmp .L13
 247               	.LM14:
 248 012e 1296      		adiw r26,2
 249 0130 ED91      		ld r30,X+
 250 0132 FC91      		ld r31,X
 251 0134 1397      		sbiw r26,2+1
 252 0136 2081      		ld r18,Z
 253 0138 CE01      		movw r24,r28
 254 013a 1696      		adiw r26,6
 255 013c 0C90      		ld r0,X
 256 013e 1697      		sbiw r26,6
 257 0140 00C0      		rjmp 2f
 258 0142 880F      	1:	lsl r24
 259 0144 991F      		rol r25
 260 0146 0A94      	2:	dec r0
 261 0148 02F4      		brpl 1b
 262 014a 8095      		com r24
 263 014c 8223      		and r24,r18
 264 014e 8083      		st Z,r24
 265               	.LM15:
 266 0150 ED91      		ld r30,X+
 267 0152 FC91      		ld r31,X
 268 0154 1197      		sbiw r26,1
 269 0156 2081      		ld r18,Z
 270 0158 CE01      		movw r24,r28
 271 015a 1696      		adiw r26,6
 272 015c 0C90      		ld r0,X
 273 015e 1697      		sbiw r26,6
 274 0160 00C0      		rjmp 2f
 275 0162 880F      	1:	lsl r24
 276 0164 991F      		rol r25
 277 0166 0A94      	2:	dec r0
 278 0168 02F4      		brpl 1b
 279 016a 8095      		com r24
 280 016c 8223      		and r24,r18
 281 016e 8083      		st Z,r24
 282               	.LBB90:
 283               	.LBB91:
 284               	.LM16:
 285               	/* #APP */
 286               	 ;  45 "i2csw.c" 1
 287 0170 0000      		nop
 288               	 ;  0 "" 2
 289               	 ;  45 "i2csw.c" 1
 290 0172 0000      		nop
 291               	 ;  0 "" 2
 292               	 ;  45 "i2csw.c" 1
 293 0174 0000      		nop
 294               	 ;  0 "" 2
 295               	 ;  45 "i2csw.c" 1
 296 0176 0000      		nop
 297               	 ;  0 "" 2
 298               	 ;  45 "i2csw.c" 1
 299 0178 0000      		nop
 300               	 ;  0 "" 2
 301               	 ;  45 "i2csw.c" 1
 302 017a 0000      		nop
 303               	 ;  0 "" 2
 304               	 ;  45 "i2csw.c" 1
 305 017c 0000      		nop
 306               	 ;  0 "" 2
 307               	 ;  45 "i2csw.c" 1
 308 017e 0000      		nop
 309               	 ;  0 "" 2
 310               	/* #NOAPP */
 311               	.LBE91:
 312               	.LBE90:
 313               	.LM17:
 314 0180 1996      		adiw r26,9
 315 0182 ED91      		ld r30,X+
 316 0184 FC91      		ld r31,X
 317 0186 1A97      		sbiw r26,9+1
 318 0188 2081      		ld r18,Z
 319 018a 1D96      		adiw r26,13
 320 018c 8C91      		ld r24,X
 321 018e 1D97      		sbiw r26,13
 322 0190 AE01      		movw r20,r28
 323 0192 00C0      		rjmp 2f
 324 0194 440F      	1:	lsl r20
 325 0196 551F      		rol r21
 326 0198 8A95      	2:	dec r24
 327 019a 02F4      		brpl 1b
 328 019c 242B      		or r18,r20
 329 019e 2083      		st Z,r18
 330 01a0 1796      		adiw r26,7
 331 01a2 ED91      		ld r30,X+
 332 01a4 FC91      		ld r31,X
 333 01a6 1897      		sbiw r26,7+1
 334 01a8 9081      		ld r25,Z
 335 01aa 1D96      		adiw r26,13
 336 01ac 8C91      		ld r24,X
 337 01ae 1D97      		sbiw r26,13
 338 01b0 00C0      		rjmp 2f
 339 01b2 CC0F      	1:	lsl r28
 340 01b4 DD1F      		rol r29
 341 01b6 8A95      	2:	dec r24
 342 01b8 02F4      		brpl 1b
 343 01ba BE01      		movw r22,r28
 344 01bc 6095      		com r22
 345 01be 862F      		mov r24,r22
 346 01c0 8923      		and r24,r25
 347 01c2 8083      		st Z,r24
 348 01c4 1B96      		adiw r26,11
 349 01c6 ED91      		ld r30,X+
 350 01c8 FC91      		ld r31,X
 351 01ca 1C97      		sbiw r26,11+1
 352               	.L14:
 353 01cc 8081      		ld r24,Z
 354 01ce 1D96      		adiw r26,13
 355 01d0 2C91      		ld r18,X
 356 01d2 1D97      		sbiw r26,13
 357 01d4 90E0      		ldi r25,lo8(0)
 358 01d6 00C0      		rjmp 2f
 359 01d8 9595      	1:	asr r25
 360 01da 8795      		ror r24
 361 01dc 2A95      	2:	dec r18
 362 01de 02F4      		brpl 1b
 363 01e0 80FF      		sbrs r24,0
 364 01e2 00C0      		rjmp .L14
 365 01e4 1796      		adiw r26,7
 366 01e6 ED91      		ld r30,X+
 367 01e8 FC91      		ld r31,X
 368 01ea 1897      		sbiw r26,7+1
 369 01ec 2081      		ld r18,Z
 370 01ee 1D96      		adiw r26,13
 371 01f0 8C91      		ld r24,X
 372 01f2 1D97      		sbiw r26,13
 373 01f4 41E0      		ldi r20,lo8(1)
 374 01f6 50E0      		ldi r21,hi8(1)
 375 01f8 EA01      		movw r28,r20
 376 01fa 00C0      		rjmp 2f
 377 01fc CC0F      	1:	lsl r28
 378 01fe DD1F      		rol r29
 379 0200 8A95      	2:	dec r24
 380 0202 02F4      		brpl 1b
 381 0204 2C2B      		or r18,r28
 382 0206 2083      		st Z,r18
 383               	.LM18:
 384 0208 1496      		adiw r26,4
 385 020a ED91      		ld r30,X+
 386 020c FC91      		ld r31,X
 387 020e 1597      		sbiw r26,4+1
 388 0210 3081      		ld r19,Z
 389 0212 1696      		adiw r26,6
 390 0214 6C91      		ld r22,X
 391 0216 1697      		sbiw r26,6
 392               	.LBB92:
 393               	.LBB93:
 394               	.LM19:
 395               	/* #APP */
 396               	 ;  45 "i2csw.c" 1
 397 0218 0000      		nop
 398               	 ;  0 "" 2
 399               	 ;  45 "i2csw.c" 1
 400 021a 0000      		nop
 401               	 ;  0 "" 2
 402               	 ;  45 "i2csw.c" 1
 403 021c 0000      		nop
 404               	 ;  0 "" 2
 405               	 ;  45 "i2csw.c" 1
 406 021e 0000      		nop
 407               	 ;  0 "" 2
 408               	 ;  45 "i2csw.c" 1
 409 0220 0000      		nop
 410               	 ;  0 "" 2
 411               	 ;  45 "i2csw.c" 1
 412 0222 0000      		nop
 413               	 ;  0 "" 2
 414               	 ;  45 "i2csw.c" 1
 415 0224 0000      		nop
 416               	 ;  0 "" 2
 417               	 ;  45 "i2csw.c" 1
 418 0226 0000      		nop
 419               	 ;  0 "" 2
 420               	 ;  45 "i2csw.c" 1
 421 0228 0000      		nop
 422               	 ;  0 "" 2
 423               	/* #NOAPP */
 424               	.LBE93:
 425               	.LBE92:
 426               	.LM20:
 427 022a 1996      		adiw r26,9
 428 022c ED91      		ld r30,X+
 429 022e FC91      		ld r31,X
 430 0230 1A97      		sbiw r26,9+1
 431 0232 2081      		ld r18,Z
 432 0234 1D96      		adiw r26,13
 433 0236 8C91      		ld r24,X
 434 0238 1D97      		sbiw r26,13
 435 023a 7A01      		movw r14,r20
 436 023c 00C0      		rjmp 2f
 437 023e EE0C      	1:	lsl r14
 438 0240 FF1C      		rol r15
 439 0242 8A95      	2:	dec r24
 440 0244 02F4      		brpl 1b
 441 0246 C701      		movw r24,r14
 442 0248 8095      		com r24
 443 024a 8223      		and r24,r18
 444 024c 8083      		st Z,r24
 445               	.LM21:
 446 024e ED91      		ld r30,X+
 447 0250 FC91      		ld r31,X
 448 0252 1197      		sbiw r26,1
 449 0254 2081      		ld r18,Z
 450 0256 CA01      		movw r24,r20
 451 0258 1696      		adiw r26,6
 452 025a 0C90      		ld r0,X
 453 025c 00C0      		rjmp 2f
 454 025e 880F      	1:	lsl r24
 455 0260 991F      		rol r25
 456 0262 0A94      	2:	dec r0
 457 0264 02F4      		brpl 1b
 458 0266 282B      		or r18,r24
 459 0268 2083      		st Z,r18
 460               	.LBB94:
 461               	.LBB95:
 462               	.LM22:
 463               	/* #APP */
 464               	 ;  45 "i2csw.c" 1
 465 026a 0000      		nop
 466               	 ;  0 "" 2
 467               	 ;  45 "i2csw.c" 1
 468 026c 0000      		nop
 469               	 ;  0 "" 2
 470               	 ;  45 "i2csw.c" 1
 471 026e 0000      		nop
 472               	 ;  0 "" 2
 473               	 ;  45 "i2csw.c" 1
 474 0270 0000      		nop
 475               	 ;  0 "" 2
 476               	 ;  45 "i2csw.c" 1
 477 0272 0000      		nop
 478               	 ;  0 "" 2
 479               	/* #NOAPP */
 480 0274 80E0      		ldi r24,lo8(0)
 481 0276 00C0      		rjmp 2f
 482 0278 440F      	1:	lsl r20
 483 027a 551F      		rol r21
 484 027c 6A95      	2:	dec r22
 485 027e 02F4      		brpl 1b
 486 0280 3423      		and r19,r20
 487 0282 01F4      		brne .L15
 488 0284 81E0      		ldi r24,lo8(1)
 489               	.L15:
 490               	/* epilogue start */
 491               	.LBE95:
 492               	.LBE94:
 493               	.LM23:
 494 0286 DF91      		pop r29
 495 0288 CF91      		pop r28
 496 028a 1F91      		pop r17
 497 028c 0F91      		pop r16
 498 028e FF90      		pop r15
 499 0290 EF90      		pop r14
 500 0292 0895      		ret
 501               	.L10:
 502               	.LM24:
 503 0294 1296      		adiw r26,2
 504 0296 ED91      		ld r30,X+
 505 0298 FC91      		ld r31,X
 506 029a 1397      		sbiw r26,2+1
 507 029c 2081      		ld r18,Z
 508 029e CB01      		movw r24,r22
 509 02a0 1696      		adiw r26,6
 510 02a2 0C90      		ld r0,X
 511 02a4 1697      		sbiw r26,6
 512 02a6 00C0      		rjmp 2f
 513 02a8 880F      	1:	lsl r24
 514 02aa 991F      		rol r25
 515 02ac 0A94      	2:	dec r0
 516 02ae 02F4      		brpl 1b
 517 02b0 8095      		com r24
 518 02b2 8223      		and r24,r18
 519 02b4 8083      		st Z,r24
 520 02b6 00C0      		rjmp .L11
 521               	.LFE4:
 523               	.global	i2cGetbyte
 525               	i2cGetbyte:
 526               	.LFB5:
 527               	.LM25:
 528               	.LVL4:
 529 02b8 0F93      		push r16
 530 02ba 1F93      		push r17
 531 02bc CF93      		push r28
 532 02be DF93      		push r29
 533               	/* prologue: function */
 534               	/* frame size = 0 */
 535 02c0 DC01      		movw r26,r24
 536 02c2 062F      		mov r16,r22
 537               	.LM26:
 538 02c4 1296      		adiw r26,2
 539 02c6 ED91      		ld r30,X+
 540 02c8 FC91      		ld r31,X
 541 02ca 1397      		sbiw r26,2+1
 542 02cc 4081      		ld r20,Z
 543 02ce 81E0      		ldi r24,lo8(1)
 544 02d0 90E0      		ldi r25,hi8(1)
 545               	.LVL5:
 546 02d2 9C01      		movw r18,r24
 547 02d4 1696      		adiw r26,6
 548 02d6 0C90      		ld r0,X
 549 02d8 1697      		sbiw r26,6
 550 02da 00C0      		rjmp 2f
 551 02dc 220F      	1:	lsl r18
 552 02de 331F      		rol r19
 553 02e0 0A94      	2:	dec r0
 554 02e2 02F4      		brpl 1b
 555 02e4 422B      		or r20,r18
 556 02e6 4083      		st Z,r20
 557               	.LM27:
 558 02e8 ED91      		ld r30,X+
 559 02ea FC91      		ld r31,X
 560 02ec 1197      		sbiw r26,1
 561 02ee 2081      		ld r18,Z
 562 02f0 1696      		adiw r26,6
 563 02f2 0C90      		ld r0,X
 564 02f4 1697      		sbiw r26,6
 565 02f6 00C0      		rjmp 2f
 566 02f8 880F      	1:	lsl r24
 567 02fa 991F      		rol r25
 568 02fc 0A94      	2:	dec r0
 569 02fe 02F4      		brpl 1b
 570 0300 8095      		com r24
 571 0302 8223      		and r24,r18
 572 0304 8083      		st Z,r24
 573 0306 10E0      		ldi r17,lo8(0)
 574               	.LVL6:
 575 0308 37E0      		ldi r19,lo8(7)
 576               	.LM28:
 577 030a 61E0      		ldi r22,lo8(1)
 578 030c 70E0      		ldi r23,hi8(1)
 579               	.LVL7:
 580               	.L21:
 581               	.LBB112:
 582               	.LBB113:
 583               	.LM29:
 584               	/* #APP */
 585               	 ;  45 "i2csw.c" 1
 586 030e 0000      		nop
 587               	 ;  0 "" 2
 588               	 ;  45 "i2csw.c" 1
 589 0310 0000      		nop
 590               	 ;  0 "" 2
 591               	 ;  45 "i2csw.c" 1
 592 0312 0000      		nop
 593               	 ;  0 "" 2
 594               	 ;  45 "i2csw.c" 1
 595 0314 0000      		nop
 596               	 ;  0 "" 2
 597               	 ;  45 "i2csw.c" 1
 598 0316 0000      		nop
 599               	 ;  0 "" 2
 600               	 ;  45 "i2csw.c" 1
 601 0318 0000      		nop
 602               	 ;  0 "" 2
 603               	 ;  45 "i2csw.c" 1
 604 031a 0000      		nop
 605               	 ;  0 "" 2
 606               	 ;  45 "i2csw.c" 1
 607 031c 0000      		nop
 608               	 ;  0 "" 2
 609               	 ;  45 "i2csw.c" 1
 610 031e 0000      		nop
 611               	 ;  0 "" 2
 612               	/* #NOAPP */
 613               	.LBE113:
 614               	.LBE112:
 615               	.LM30:
 616 0320 1996      		adiw r26,9
 617 0322 ED91      		ld r30,X+
 618 0324 FC91      		ld r31,X
 619 0326 1A97      		sbiw r26,9+1
 620 0328 2081      		ld r18,Z
 621 032a 1D96      		adiw r26,13
 622 032c 8C91      		ld r24,X
 623 032e 1D97      		sbiw r26,13
 624 0330 AB01      		movw r20,r22
 625 0332 00C0      		rjmp 2f
 626 0334 440F      	1:	lsl r20
 627 0336 551F      		rol r21
 628 0338 8A95      	2:	dec r24
 629 033a 02F4      		brpl 1b
 630 033c 242B      		or r18,r20
 631 033e 2083      		st Z,r18
 632 0340 1796      		adiw r26,7
 633 0342 ED91      		ld r30,X+
 634 0344 FC91      		ld r31,X
 635 0346 1897      		sbiw r26,7+1
 636 0348 2081      		ld r18,Z
 637 034a 1D96      		adiw r26,13
 638 034c 8C91      		ld r24,X
 639 034e 1D97      		sbiw r26,13
 640 0350 EB01      		movw r28,r22
 641 0352 00C0      		rjmp 2f
 642 0354 CC0F      	1:	lsl r28
 643 0356 DD1F      		rol r29
 644 0358 8A95      	2:	dec r24
 645 035a 02F4      		brpl 1b
 646 035c CE01      		movw r24,r28
 647 035e 8095      		com r24
 648 0360 8223      		and r24,r18
 649 0362 8083      		st Z,r24
 650 0364 1B96      		adiw r26,11
 651 0366 ED91      		ld r30,X+
 652 0368 FC91      		ld r31,X
 653 036a 1C97      		sbiw r26,11+1
 654               	.L22:
 655 036c 8081      		ld r24,Z
 656 036e 1D96      		adiw r26,13
 657 0370 2C91      		ld r18,X
 658 0372 1D97      		sbiw r26,13
 659 0374 90E0      		ldi r25,lo8(0)
 660 0376 00C0      		rjmp 2f
 661 0378 9595      	1:	asr r25
 662 037a 8795      		ror r24
 663 037c 2A95      	2:	dec r18
 664 037e 02F4      		brpl 1b
 665 0380 80FF      		sbrs r24,0
 666 0382 00C0      		rjmp .L22
 667 0384 1796      		adiw r26,7
 668 0386 ED91      		ld r30,X+
 669 0388 FC91      		ld r31,X
 670 038a 1897      		sbiw r26,7+1
 671 038c 2081      		ld r18,Z
 672 038e 1D96      		adiw r26,13
 673 0390 8C91      		ld r24,X
 674 0392 1D97      		sbiw r26,13
 675 0394 AB01      		movw r20,r22
 676 0396 00C0      		rjmp 2f
 677 0398 440F      	1:	lsl r20
 678 039a 551F      		rol r21
 679 039c 8A95      	2:	dec r24
 680 039e 02F4      		brpl 1b
 681 03a0 242B      		or r18,r20
 682 03a2 2083      		st Z,r18
 683               	.LM31:
 684 03a4 1496      		adiw r26,4
 685 03a6 ED91      		ld r30,X+
 686 03a8 FC91      		ld r31,X
 687 03aa 1597      		sbiw r26,4+1
 688 03ac 2081      		ld r18,Z
 689               	.LM32:
 690 03ae 110F      		lsl r17
 691               	.LM33:
 692 03b0 CB01      		movw r24,r22
 693 03b2 1696      		adiw r26,6
 694 03b4 0C90      		ld r0,X
 695 03b6 1697      		sbiw r26,6
 696 03b8 00C0      		rjmp 2f
 697 03ba 880F      	1:	lsl r24
 698 03bc 991F      		rol r25
 699 03be 0A94      	2:	dec r0
 700 03c0 02F4      		brpl 1b
 701 03c2 2823      		and r18,r24
 702 03c4 01F0      		breq .L23
 703 03c6 1160      		ori r17,lo8(1)
 704               	.L23:
 705               	.LBB114:
 706               	.LBB115:
 707               	.LM34:
 708               	/* #APP */
 709               	 ;  45 "i2csw.c" 1
 710 03c8 0000      		nop
 711               	 ;  0 "" 2
 712               	 ;  45 "i2csw.c" 1
 713 03ca 0000      		nop
 714               	 ;  0 "" 2
 715               	 ;  45 "i2csw.c" 1
 716 03cc 0000      		nop
 717               	 ;  0 "" 2
 718               	 ;  45 "i2csw.c" 1
 719 03ce 0000      		nop
 720               	 ;  0 "" 2
 721               	 ;  45 "i2csw.c" 1
 722 03d0 0000      		nop
 723               	 ;  0 "" 2
 724               	 ;  45 "i2csw.c" 1
 725 03d2 0000      		nop
 726               	 ;  0 "" 2
 727               	 ;  45 "i2csw.c" 1
 728 03d4 0000      		nop
 729               	 ;  0 "" 2
 730               	 ;  45 "i2csw.c" 1
 731 03d6 0000      		nop
 732               	 ;  0 "" 2
 733               	 ;  45 "i2csw.c" 1
 734 03d8 0000      		nop
 735               	 ;  0 "" 2
 736               	/* #NOAPP */
 737               	.LBE115:
 738               	.LBE114:
 739               	.LM35:
 740 03da 1996      		adiw r26,9
 741 03dc ED91      		ld r30,X+
 742 03de FC91      		ld r31,X
 743 03e0 1A97      		sbiw r26,9+1
 744 03e2 2081      		ld r18,Z
 745 03e4 1D96      		adiw r26,13
 746 03e6 8C91      		ld r24,X
 747 03e8 1D97      		sbiw r26,13
 748 03ea 41E0      		ldi r20,lo8(1)
 749 03ec 50E0      		ldi r21,hi8(1)
 750 03ee EB01      		movw r28,r22
 751 03f0 00C0      		rjmp 2f
 752 03f2 CC0F      	1:	lsl r28
 753 03f4 DD1F      		rol r29
 754 03f6 8A95      	2:	dec r24
 755 03f8 02F4      		brpl 1b
 756 03fa CE01      		movw r24,r28
 757 03fc 8095      		com r24
 758 03fe 8223      		and r24,r18
 759 0400 8083      		st Z,r24
 760 0402 3150      		subi r19,1
 761 0404 00F0      		brcs .+2
 762 0406 00C0      		rjmp .L21
 763               	.LM36:
 764 0408 ED91      		ld r30,X+
 765 040a FC91      		ld r31,X
 766 040c 1197      		sbiw r26,1
 767 040e 2081      		ld r18,Z
 768 0410 CA01      		movw r24,r20
 769 0412 1696      		adiw r26,6
 770 0414 0C90      		ld r0,X
 771 0416 1697      		sbiw r26,6
 772 0418 00C0      		rjmp 2f
 773 041a 880F      	1:	lsl r24
 774 041c 991F      		rol r25
 775 041e 0A94      	2:	dec r0
 776 0420 02F4      		brpl 1b
 777 0422 282B      		or r18,r24
 778 0424 2083      		st Z,r18
 779               	.LM37:
 780 0426 0023      		tst r16
 781 0428 01F4      		brne .+2
 782 042a 00C0      		rjmp .L25
 783               	.LM38:
 784 042c 1296      		adiw r26,2
 785 042e ED91      		ld r30,X+
 786 0430 FC91      		ld r31,X
 787 0432 1397      		sbiw r26,2+1
 788 0434 8081      		ld r24,Z
 789 0436 1696      		adiw r26,6
 790 0438 0C90      		ld r0,X
 791 043a 1697      		sbiw r26,6
 792 043c 00C0      		rjmp 2f
 793 043e 440F      	1:	lsl r20
 794 0440 551F      		rol r21
 795 0442 0A94      	2:	dec r0
 796 0444 02F4      		brpl 1b
 797 0446 842B      		or r24,r20
 798 0448 8083      		st Z,r24
 799               	.L26:
 800               	.LBB116:
 801               	.LBB117:
 802               	.LM39:
 803               	/* #APP */
 804               	 ;  45 "i2csw.c" 1
 805 044a 0000      		nop
 806               	 ;  0 "" 2
 807               	 ;  45 "i2csw.c" 1
 808 044c 0000      		nop
 809               	 ;  0 "" 2
 810               	 ;  45 "i2csw.c" 1
 811 044e 0000      		nop
 812               	 ;  0 "" 2
 813               	 ;  45 "i2csw.c" 1
 814 0450 0000      		nop
 815               	 ;  0 "" 2
 816               	 ;  45 "i2csw.c" 1
 817 0452 0000      		nop
 818               	 ;  0 "" 2
 819               	/* #NOAPP */
 820               	.LBE117:
 821               	.LBE116:
 822               	.LM40:
 823 0454 1996      		adiw r26,9
 824 0456 ED91      		ld r30,X+
 825 0458 FC91      		ld r31,X
 826 045a 1A97      		sbiw r26,9+1
 827 045c 4081      		ld r20,Z
 828 045e 1D96      		adiw r26,13
 829 0460 2C91      		ld r18,X
 830 0462 1D97      		sbiw r26,13
 831 0464 81E0      		ldi r24,lo8(1)
 832 0466 90E0      		ldi r25,hi8(1)
 833 0468 BC01      		movw r22,r24
 834 046a 00C0      		rjmp 2f
 835 046c 660F      	1:	lsl r22
 836 046e 771F      		rol r23
 837 0470 2A95      	2:	dec r18
 838 0472 02F4      		brpl 1b
 839 0474 462B      		or r20,r22
 840 0476 4083      		st Z,r20
 841 0478 1796      		adiw r26,7
 842 047a ED91      		ld r30,X+
 843 047c FC91      		ld r31,X
 844 047e 1897      		sbiw r26,7+1
 845 0480 3081      		ld r19,Z
 846 0482 1D96      		adiw r26,13
 847 0484 2C91      		ld r18,X
 848 0486 1D97      		sbiw r26,13
 849 0488 00C0      		rjmp 2f
 850 048a 880F      	1:	lsl r24
 851 048c 991F      		rol r25
 852 048e 2A95      	2:	dec r18
 853 0490 02F4      		brpl 1b
 854 0492 8095      		com r24
 855 0494 8323      		and r24,r19
 856 0496 8083      		st Z,r24
 857 0498 1B96      		adiw r26,11
 858 049a ED91      		ld r30,X+
 859 049c FC91      		ld r31,X
 860 049e 1C97      		sbiw r26,11+1
 861               	.L27:
 862 04a0 8081      		ld r24,Z
 863 04a2 1D96      		adiw r26,13
 864 04a4 2C91      		ld r18,X
 865 04a6 1D97      		sbiw r26,13
 866 04a8 90E0      		ldi r25,lo8(0)
 867 04aa 00C0      		rjmp 2f
 868 04ac 9595      	1:	asr r25
 869 04ae 8795      		ror r24
 870 04b0 2A95      	2:	dec r18
 871 04b2 02F4      		brpl 1b
 872 04b4 80FF      		sbrs r24,0
 873 04b6 00C0      		rjmp .L27
 874 04b8 1796      		adiw r26,7
 875 04ba ED91      		ld r30,X+
 876 04bc FC91      		ld r31,X
 877 04be 1897      		sbiw r26,7+1
 878 04c0 2081      		ld r18,Z
 879 04c2 1D96      		adiw r26,13
 880 04c4 8C91      		ld r24,X
 881 04c6 1D97      		sbiw r26,13
 882 04c8 41E0      		ldi r20,lo8(1)
 883 04ca 50E0      		ldi r21,hi8(1)
 884 04cc EA01      		movw r28,r20
 885 04ce 00C0      		rjmp 2f
 886 04d0 CC0F      	1:	lsl r28
 887 04d2 DD1F      		rol r29
 888 04d4 8A95      	2:	dec r24
 889 04d6 02F4      		brpl 1b
 890 04d8 2C2B      		or r18,r28
 891 04da 2083      		st Z,r18
 892               	.LBB118:
 893               	.LBB119:
 894               	.LM41:
 895               	/* #APP */
 896               	 ;  45 "i2csw.c" 1
 897 04dc 0000      		nop
 898               	 ;  0 "" 2
 899               	 ;  45 "i2csw.c" 1
 900 04de 0000      		nop
 901               	 ;  0 "" 2
 902               	 ;  45 "i2csw.c" 1
 903 04e0 0000      		nop
 904               	 ;  0 "" 2
 905               	 ;  45 "i2csw.c" 1
 906 04e2 0000      		nop
 907               	 ;  0 "" 2
 908               	 ;  45 "i2csw.c" 1
 909 04e4 0000      		nop
 910               	 ;  0 "" 2
 911               	 ;  45 "i2csw.c" 1
 912 04e6 0000      		nop
 913               	 ;  0 "" 2
 914               	 ;  45 "i2csw.c" 1
 915 04e8 0000      		nop
 916               	 ;  0 "" 2
 917               	 ;  45 "i2csw.c" 1
 918 04ea 0000      		nop
 919               	 ;  0 "" 2
 920               	 ;  45 "i2csw.c" 1
 921 04ec 0000      		nop
 922               	 ;  0 "" 2
 923               	/* #NOAPP */
 924               	.LBE119:
 925               	.LBE118:
 926               	.LM42:
 927 04ee 1996      		adiw r26,9
 928 04f0 ED91      		ld r30,X+
 929 04f2 FC91      		ld r31,X
 930 04f4 1A97      		sbiw r26,9+1
 931 04f6 2081      		ld r18,Z
 932 04f8 1D96      		adiw r26,13
 933 04fa 8C91      		ld r24,X
 934 04fc 1D97      		sbiw r26,13
 935 04fe BA01      		movw r22,r20
 936 0500 00C0      		rjmp 2f
 937 0502 660F      	1:	lsl r22
 938 0504 771F      		rol r23
 939 0506 8A95      	2:	dec r24
 940 0508 02F4      		brpl 1b
 941 050a CB01      		movw r24,r22
 942 050c 8095      		com r24
 943 050e 8223      		and r24,r18
 944 0510 8083      		st Z,r24
 945               	.LM43:
 946 0512 1296      		adiw r26,2
 947 0514 ED91      		ld r30,X+
 948 0516 FC91      		ld r31,X
 949 0518 1397      		sbiw r26,2+1
 950 051a 8081      		ld r24,Z
 951 051c 1696      		adiw r26,6
 952 051e 0C90      		ld r0,X
 953 0520 00C0      		rjmp 2f
 954 0522 440F      	1:	lsl r20
 955 0524 551F      		rol r21
 956 0526 0A94      	2:	dec r0
 957 0528 02F4      		brpl 1b
 958 052a 842B      		or r24,r20
 959 052c 8083      		st Z,r24
 960               	.LM44:
 961 052e 812F      		mov r24,r17
 962               	/* epilogue start */
 963 0530 DF91      		pop r29
 964 0532 CF91      		pop r28
 965 0534 1F91      		pop r17
 966               	.LVL8:
 967 0536 0F91      		pop r16
 968               	.LVL9:
 969 0538 0895      		ret
 970               	.LVL10:
 971               	.L25:
 972               	.LM45:
 973 053a 1296      		adiw r26,2
 974 053c ED91      		ld r30,X+
 975 053e FC91      		ld r31,X
 976 0540 1397      		sbiw r26,2+1
 977 0542 9081      		ld r25,Z
 978 0544 1696      		adiw r26,6
 979 0546 0C90      		ld r0,X
 980 0548 1697      		sbiw r26,6
 981 054a 00C0      		rjmp 2f
 982 054c 440F      	1:	lsl r20
 983 054e 551F      		rol r21
 984 0550 0A94      	2:	dec r0
 985 0552 02F4      		brpl 1b
 986 0554 842F      		mov r24,r20
 987 0556 8095      		com r24
 988 0558 8923      		and r24,r25
 989 055a 8083      		st Z,r24
 990 055c 00C0      		rjmp .L26
 991               	.LFE5:
 993               	.global	getBus
 995               	getBus:
 996               	.LFB7:
 997               	.LM46:
 998               	.LVL11:
 999               	/* prologue: function */
 1000               	/* frame size = 0 */
 1001               	.LM47:
 1002 055e 94E3      		ldi r25,lo8(52)
 1003 0560 899F      		mul r24,r25
 1004 0562 9001      		movw r18,r0
 1005 0564 1124      		clr r1
 1006 0566 2050      		subi r18,lo8(-(i2c_context))
 1007 0568 3040      		sbci r19,hi8(-(i2c_context))
 1008               	.LM48:
 1009 056a C901      		movw r24,r18
 1010               	.LVL12:
 1011               	/* epilogue start */
 1012 056c 0895      		ret
 1013               	.LFE7:
 1015               	.global	i2cInitA
 1017               	i2cInitA:
 1018               	.LFB8:
 1019               	.LM49:
 1020               	.LVL13:
 1021               	/* prologue: function */
 1022               	/* frame size = 0 */
 1023 056e DC01      		movw r26,r24
 1024               	.LM50:
 1025 0570 22E0      		ldi r18,lo8(2)
 1026 0572 1D96      		adiw r26,13
 1027 0574 2C93      		st X,r18
 1028 0576 1D97      		sbiw r26,13
 1029               	.LM51:
 1030 0578 84E6      		ldi r24,lo8(100)
 1031 057a 90E0      		ldi r25,hi8(100)
 1032               	.LVL14:
 1033 057c 1896      		adiw r26,7+1
 1034 057e 9C93      		st X,r25
 1035 0580 8E93      		st -X,r24
 1036 0582 1797      		sbiw r26,7
 1037               	.LM52:
 1038 0584 83E6      		ldi r24,lo8(99)
 1039 0586 90E0      		ldi r25,hi8(99)
 1040 0588 1C96      		adiw r26,11+1
 1041 058a 9C93      		st X,r25
 1042 058c 8E93      		st -X,r24
 1043 058e 1B97      		sbiw r26,11
 1044               	.LM53:
 1045 0590 85E6      		ldi r24,lo8(101)
 1046 0592 90E0      		ldi r25,hi8(101)
 1047 0594 1A96      		adiw r26,9+1
 1048 0596 9C93      		st X,r25
 1049 0598 8E93      		st -X,r24
 1050 059a 1997      		sbiw r26,9
 1051               	.LM54:
 1052 059c 1696      		adiw r26,6
 1053 059e 2C93      		st X,r18
 1054 05a0 1697      		sbiw r26,6
 1055               	.LM55:
 1056 05a2 8AE3      		ldi r24,lo8(58)
 1057 05a4 90E0      		ldi r25,hi8(58)
 1058 05a6 1196      		adiw r26,1
 1059 05a8 9C93      		st X,r25
 1060 05aa 8E93      		st -X,r24
 1061               	.LM56:
 1062 05ac 89E3      		ldi r24,lo8(57)
 1063 05ae 90E0      		ldi r25,hi8(57)
 1064 05b0 1596      		adiw r26,4+1
 1065 05b2 9C93      		st X,r25
 1066 05b4 8E93      		st -X,r24
 1067 05b6 1497      		sbiw r26,4
 1068               	.LM57:
 1069 05b8 8BE3      		ldi r24,lo8(59)
 1070 05ba 90E0      		ldi r25,hi8(59)
 1071 05bc 1396      		adiw r26,2+1
 1072 05be 9C93      		st X,r25
 1073 05c0 8E93      		st -X,r24
 1074 05c2 1297      		sbiw r26,2
 1075               	.LM58:
 1076 05c4 41E0      		ldi r20,lo8(1)
 1077 05c6 50E0      		ldi r21,hi8(1)
 1078 05c8 D29A      		sbi 58-32,2
 1079               	.LM59:
 1080 05ca 1796      		adiw r26,7
 1081 05cc ED91      		ld r30,X+
 1082 05ce FC91      		ld r31,X
 1083 05d0 1897      		sbiw r26,7+1
 1084 05d2 2081      		ld r18,Z
 1085 05d4 1D96      		adiw r26,13
 1086 05d6 8C91      		ld r24,X
 1087 05d8 1D97      		sbiw r26,13
 1088 05da BA01      		movw r22,r20
 1089 05dc 00C0      		rjmp 2f
 1090 05de 660F      	1:	lsl r22
 1091 05e0 771F      		rol r23
 1092 05e2 8A95      	2:	dec r24
 1093 05e4 02F4      		brpl 1b
 1094 05e6 262B      		or r18,r22
 1095 05e8 2083      		st Z,r18
 1096               	.LM60:
 1097 05ea 1296      		adiw r26,2
 1098 05ec ED91      		ld r30,X+
 1099 05ee FC91      		ld r31,X
 1100 05f0 1397      		sbiw r26,2+1
 1101 05f2 2081      		ld r18,Z
 1102 05f4 CA01      		movw r24,r20
 1103 05f6 1696      		adiw r26,6
 1104 05f8 0C90      		ld r0,X
 1105 05fa 1697      		sbiw r26,6
 1106 05fc 00C0      		rjmp 2f
 1107 05fe 880F      	1:	lsl r24
 1108 0600 991F      		rol r25
 1109 0602 0A94      	2:	dec r0
 1110 0604 02F4      		brpl 1b
 1111 0606 282B      		or r18,r24
 1112 0608 2083      		st Z,r18
 1113               	.LM61:
 1114 060a 1996      		adiw r26,9
 1115 060c ED91      		ld r30,X+
 1116 060e FC91      		ld r31,X
 1117 0610 1A97      		sbiw r26,9+1
 1118 0612 2081      		ld r18,Z
 1119 0614 1D96      		adiw r26,13
 1120 0616 8C91      		ld r24,X
 1121 0618 1D97      		sbiw r26,13
 1122 061a BA01      		movw r22,r20
 1123 061c 00C0      		rjmp 2f
 1124 061e 660F      	1:	lsl r22
 1125 0620 771F      		rol r23
 1126 0622 8A95      	2:	dec r24
 1127 0624 02F4      		brpl 1b
 1128 0626 262B      		or r18,r22
 1129 0628 2083      		st Z,r18
 1130 062a 1796      		adiw r26,7
 1131 062c ED91      		ld r30,X+
 1132 062e FC91      		ld r31,X
 1133 0630 1897      		sbiw r26,7+1
 1134 0632 9081      		ld r25,Z
 1135 0634 1D96      		adiw r26,13
 1136 0636 8C91      		ld r24,X
 1137 0638 1D97      		sbiw r26,13
 1138 063a 00C0      		rjmp 2f
 1139 063c 440F      	1:	lsl r20
 1140 063e 551F      		rol r21
 1141 0640 8A95      	2:	dec r24
 1142 0642 02F4      		brpl 1b
 1143 0644 4095      		com r20
 1144 0646 4923      		and r20,r25
 1145 0648 4083      		st Z,r20
 1146 064a 1B96      		adiw r26,11
 1147 064c ED91      		ld r30,X+
 1148 064e FC91      		ld r31,X
 1149 0650 1C97      		sbiw r26,11+1
 1150               	.L34:
 1151 0652 8081      		ld r24,Z
 1152 0654 1D96      		adiw r26,13
 1153 0656 2C91      		ld r18,X
 1154 0658 1D97      		sbiw r26,13
 1155 065a 90E0      		ldi r25,lo8(0)
 1156 065c 00C0      		rjmp 2f
 1157 065e 9595      	1:	asr r25
 1158 0660 8795      		ror r24
 1159 0662 2A95      	2:	dec r18
 1160 0664 02F4      		brpl 1b
 1161 0666 80FF      		sbrs r24,0
 1162 0668 00C0      		rjmp .L34
 1163 066a 1796      		adiw r26,7
 1164 066c ED91      		ld r30,X+
 1165 066e FC91      		ld r31,X
 1166 0670 1897      		sbiw r26,7+1
 1167 0672 2081      		ld r18,Z
 1168 0674 1D96      		adiw r26,13
 1169 0676 3C91      		ld r19,X
 1170 0678 1D97      		sbiw r26,13
 1171 067a 81E0      		ldi r24,lo8(1)
 1172 067c 90E0      		ldi r25,hi8(1)
 1173 067e 00C0      		rjmp 2f
 1174 0680 880F      	1:	lsl r24
 1175 0682 991F      		rol r25
 1176 0684 3A95      	2:	dec r19
 1177 0686 02F4      		brpl 1b
 1178 0688 282B      		or r18,r24
 1179 068a 2083      		st Z,r18
 1180               	.LM62:
 1181 068c D396      		adiw r26,51
 1182 068e 1C92      		st X,__zero_reg__
 1183               	/* epilogue start */
 1184               	.LM63:
 1185 0690 0895      		ret
 1186               	.LFE8:
 1188               	.global	i2cInitB
 1190               	i2cInitB:
 1191               	.LFB9:
 1192               	.LM64:
 1193               	.LVL15:
 1194               	/* prologue: function */
 1195               	/* frame size = 0 */
 1196 0692 DC01      		movw r26,r24
 1197               	.LM65:
 1198 0694 81E0      		ldi r24,lo8(1)
 1199               	.LVL16:
 1200 0696 1D96      		adiw r26,13
 1201 0698 8C93      		st X,r24
 1202 069a 1D97      		sbiw r26,13
 1203               	.LM66:
 1204 069c 4AE3      		ldi r20,lo8(58)
 1205 069e 50E0      		ldi r21,hi8(58)
 1206 06a0 1896      		adiw r26,7+1
 1207 06a2 5C93      		st X,r21
 1208 06a4 4E93      		st -X,r20
 1209 06a6 1797      		sbiw r26,7
 1210               	.LM67:
 1211 06a8 29E3      		ldi r18,lo8(57)
 1212 06aa 30E0      		ldi r19,hi8(57)
 1213 06ac 1C96      		adiw r26,11+1
 1214 06ae 3C93      		st X,r19
 1215 06b0 2E93      		st -X,r18
 1216 06b2 1B97      		sbiw r26,11
 1217               	.LM68:
 1218 06b4 8BE3      		ldi r24,lo8(59)
 1219 06b6 90E0      		ldi r25,hi8(59)
 1220 06b8 1A96      		adiw r26,9+1
 1221 06ba 9C93      		st X,r25
 1222 06bc 8E93      		st -X,r24
 1223 06be 1997      		sbiw r26,9
 1224               	.LM69:
 1225 06c0 1696      		adiw r26,6
 1226 06c2 1C92      		st X,__zero_reg__
 1227 06c4 1697      		sbiw r26,6
 1228               	.LM70:
 1229 06c6 1196      		adiw r26,1
 1230 06c8 5C93      		st X,r21
 1231 06ca 4E93      		st -X,r20
 1232               	.LM71:
 1233 06cc 1596      		adiw r26,4+1
 1234 06ce 3C93      		st X,r19
 1235 06d0 2E93      		st -X,r18
 1236 06d2 1497      		sbiw r26,4
 1237               	.LM72:
 1238 06d4 1396      		adiw r26,2+1
 1239 06d6 9C93      		st X,r25
 1240 06d8 8E93      		st -X,r24
 1241 06da 1297      		sbiw r26,2
 1242               	.LM73:
 1243 06dc 41E0      		ldi r20,lo8(1)
 1244 06de 50E0      		ldi r21,hi8(1)
 1245 06e0 D09A      		sbi 58-32,0
 1246               	.LM74:
 1247 06e2 1796      		adiw r26,7
 1248 06e4 ED91      		ld r30,X+
 1249 06e6 FC91      		ld r31,X
 1250 06e8 1897      		sbiw r26,7+1
 1251 06ea 2081      		ld r18,Z
 1252 06ec 1D96      		adiw r26,13
 1253 06ee 8C91      		ld r24,X
 1254 06f0 1D97      		sbiw r26,13
 1255 06f2 BA01      		movw r22,r20
 1256 06f4 00C0      		rjmp 2f
 1257 06f6 660F      	1:	lsl r22
 1258 06f8 771F      		rol r23
 1259 06fa 8A95      	2:	dec r24
 1260 06fc 02F4      		brpl 1b
 1261 06fe 262B      		or r18,r22
 1262 0700 2083      		st Z,r18
 1263               	.LM75:
 1264 0702 1296      		adiw r26,2
 1265 0704 ED91      		ld r30,X+
 1266 0706 FC91      		ld r31,X
 1267 0708 1397      		sbiw r26,2+1
 1268 070a 2081      		ld r18,Z
 1269 070c CA01      		movw r24,r20
 1270 070e 1696      		adiw r26,6
 1271 0710 0C90      		ld r0,X
 1272 0712 1697      		sbiw r26,6
 1273 0714 00C0      		rjmp 2f
 1274 0716 880F      	1:	lsl r24
 1275 0718 991F      		rol r25
 1276 071a 0A94      	2:	dec r0
 1277 071c 02F4      		brpl 1b
 1278 071e 282B      		or r18,r24
 1279 0720 2083      		st Z,r18
 1280               	.LM76:
 1281 0722 1996      		adiw r26,9
 1282 0724 ED91      		ld r30,X+
 1283 0726 FC91      		ld r31,X
 1284 0728 1A97      		sbiw r26,9+1
 1285 072a 2081      		ld r18,Z
 1286 072c 1D96      		adiw r26,13
 1287 072e 8C91      		ld r24,X
 1288 0730 1D97      		sbiw r26,13
 1289 0732 BA01      		movw r22,r20
 1290 0734 00C0      		rjmp 2f
 1291 0736 660F      	1:	lsl r22
 1292 0738 771F      		rol r23
 1293 073a 8A95      	2:	dec r24
 1294 073c 02F4      		brpl 1b
 1295 073e 262B      		or r18,r22
 1296 0740 2083      		st Z,r18
 1297 0742 1796      		adiw r26,7
 1298 0744 ED91      		ld r30,X+
 1299 0746 FC91      		ld r31,X
 1300 0748 1897      		sbiw r26,7+1
 1301 074a 9081      		ld r25,Z
 1302 074c 1D96      		adiw r26,13
 1303 074e 8C91      		ld r24,X
 1304 0750 1D97      		sbiw r26,13
 1305 0752 00C0      		rjmp 2f
 1306 0754 440F      	1:	lsl r20
 1307 0756 551F      		rol r21
 1308 0758 8A95      	2:	dec r24
 1309 075a 02F4      		brpl 1b
 1310 075c 4095      		com r20
 1311 075e 4923      		and r20,r25
 1312 0760 4083      		st Z,r20
 1313 0762 1B96      		adiw r26,11
 1314 0764 ED91      		ld r30,X+
 1315 0766 FC91      		ld r31,X
 1316 0768 1C97      		sbiw r26,11+1
 1317               	.L38:
 1318 076a 8081      		ld r24,Z
 1319 076c 1D96      		adiw r26,13
 1320 076e 2C91      		ld r18,X
 1321 0770 1D97      		sbiw r26,13
 1322 0772 90E0      		ldi r25,lo8(0)
 1323 0774 00C0      		rjmp 2f
 1324 0776 9595      	1:	asr r25
 1325 0778 8795      		ror r24
 1326 077a 2A95      	2:	dec r18
 1327 077c 02F4      		brpl 1b
 1328 077e 80FF      		sbrs r24,0
 1329 0780 00C0      		rjmp .L38
 1330 0782 1796      		adiw r26,7
 1331 0784 ED91      		ld r30,X+
 1332 0786 FC91      		ld r31,X
 1333 0788 1897      		sbiw r26,7+1
 1334 078a 2081      		ld r18,Z
 1335 078c 1D96      		adiw r26,13
 1336 078e 3C91      		ld r19,X
 1337 0790 1D97      		sbiw r26,13
 1338 0792 81E0      		ldi r24,lo8(1)
 1339 0794 90E0      		ldi r25,hi8(1)
 1340 0796 00C0      		rjmp 2f
 1341 0798 880F      	1:	lsl r24
 1342 079a 991F      		rol r25
 1343 079c 3A95      	2:	dec r19
 1344 079e 02F4      		brpl 1b
 1345 07a0 282B      		or r18,r24
 1346 07a2 2083      		st Z,r18
 1347               	.LM77:
 1348 07a4 D396      		adiw r26,51
 1349 07a6 1C92      		st X,__zero_reg__
 1350               	/* epilogue start */
 1351               	.LM78:
 1352 07a8 0895      		ret
 1353               	.LFE9:
 1355               	.global	i2cTemp
 1357               	i2cTemp:
 1358               	.LFB10:
 1359               	.LM79:
 1360               	.LVL17:
 1361               	/* prologue: function */
 1362               	/* frame size = 0 */
 1363 07aa DC01      		movw r26,r24
 1364               	.LM80:
 1365 07ac 82E0      		ldi r24,lo8(2)
 1366               	.LVL18:
 1367 07ae 1D96      		adiw r26,13
 1368 07b0 8C93      		st X,r24
 1369 07b2 1D97      		sbiw r26,13
 1370               	.LM81:
 1371 07b4 64E3      		ldi r22,lo8(52)
 1372 07b6 70E0      		ldi r23,hi8(52)
 1373 07b8 1896      		adiw r26,7+1
 1374 07ba 7C93      		st X,r23
 1375 07bc 6E93      		st -X,r22
 1376 07be 1797      		sbiw r26,7
 1377               	.LM82:
 1378 07c0 43E3      		ldi r20,lo8(51)
 1379 07c2 50E0      		ldi r21,hi8(51)
 1380 07c4 1C96      		adiw r26,11+1
 1381 07c6 5C93      		st X,r21
 1382 07c8 4E93      		st -X,r20
 1383 07ca 1B97      		sbiw r26,11
 1384               	.LM83:
 1385 07cc 25E3      		ldi r18,lo8(53)
 1386 07ce 30E0      		ldi r19,hi8(53)
 1387 07d0 1A96      		adiw r26,9+1
 1388 07d2 3C93      		st X,r19
 1389 07d4 2E93      		st -X,r18
 1390 07d6 1997      		sbiw r26,9
 1391               	.LM84:
 1392 07d8 83E0      		ldi r24,lo8(3)
 1393 07da 1696      		adiw r26,6
 1394 07dc 8C93      		st X,r24
 1395 07de 1697      		sbiw r26,6
 1396               	.LM85:
 1397 07e0 1196      		adiw r26,1
 1398 07e2 7C93      		st X,r23
 1399 07e4 6E93      		st -X,r22
 1400               	.LM86:
 1401 07e6 1596      		adiw r26,4+1
 1402 07e8 5C93      		st X,r21
 1403 07ea 4E93      		st -X,r20
 1404 07ec 1497      		sbiw r26,4
 1405               	.LM87:
 1406 07ee 1396      		adiw r26,2+1
 1407 07f0 3C93      		st X,r19
 1408 07f2 2E93      		st -X,r18
 1409 07f4 1297      		sbiw r26,2
 1410               	.LM88:
 1411 07f6 41E0      		ldi r20,lo8(1)
 1412 07f8 50E0      		ldi r21,hi8(1)
 1413 07fa A39A      		sbi 52-32,3
 1414               	.LM89:
 1415 07fc 1796      		adiw r26,7
 1416 07fe ED91      		ld r30,X+
 1417 0800 FC91      		ld r31,X
 1418 0802 1897      		sbiw r26,7+1
 1419 0804 2081      		ld r18,Z
 1420 0806 1D96      		adiw r26,13
 1421 0808 8C91      		ld r24,X
 1422 080a 1D97      		sbiw r26,13
 1423 080c BA01      		movw r22,r20
 1424 080e 00C0      		rjmp 2f
 1425 0810 660F      	1:	lsl r22
 1426 0812 771F      		rol r23
 1427 0814 8A95      	2:	dec r24
 1428 0816 02F4      		brpl 1b
 1429 0818 262B      		or r18,r22
 1430 081a 2083      		st Z,r18
 1431               	.LM90:
 1432 081c 1296      		adiw r26,2
 1433 081e ED91      		ld r30,X+
 1434 0820 FC91      		ld r31,X
 1435 0822 1397      		sbiw r26,2+1
 1436 0824 2081      		ld r18,Z
 1437 0826 CA01      		movw r24,r20
 1438 0828 1696      		adiw r26,6
 1439 082a 0C90      		ld r0,X
 1440 082c 1697      		sbiw r26,6
 1441 082e 00C0      		rjmp 2f
 1442 0830 880F      	1:	lsl r24
 1443 0832 991F      		rol r25
 1444 0834 0A94      	2:	dec r0
 1445 0836 02F4      		brpl 1b
 1446 0838 282B      		or r18,r24
 1447 083a 2083      		st Z,r18
 1448               	.LM91:
 1449 083c 1996      		adiw r26,9
 1450 083e ED91      		ld r30,X+
 1451 0840 FC91      		ld r31,X
 1452 0842 1A97      		sbiw r26,9+1
 1453 0844 2081      		ld r18,Z
 1454 0846 1D96      		adiw r26,13
 1455 0848 8C91      		ld r24,X
 1456 084a 1D97      		sbiw r26,13
 1457 084c BA01      		movw r22,r20
 1458 084e 00C0      		rjmp 2f
 1459 0850 660F      	1:	lsl r22
 1460 0852 771F      		rol r23
 1461 0854 8A95      	2:	dec r24
 1462 0856 02F4      		brpl 1b
 1463 0858 262B      		or r18,r22
 1464 085a 2083      		st Z,r18
 1465 085c 1796      		adiw r26,7
 1466 085e ED91      		ld r30,X+
 1467 0860 FC91      		ld r31,X
 1468 0862 1897      		sbiw r26,7+1
 1469 0864 9081      		ld r25,Z
 1470 0866 1D96      		adiw r26,13
 1471 0868 8C91      		ld r24,X
 1472 086a 1D97      		sbiw r26,13
 1473 086c 00C0      		rjmp 2f
 1474 086e 440F      	1:	lsl r20
 1475 0870 551F      		rol r21
 1476 0872 8A95      	2:	dec r24
 1477 0874 02F4      		brpl 1b
 1478 0876 4095      		com r20
 1479 0878 4923      		and r20,r25
 1480 087a 4083      		st Z,r20
 1481 087c 1B96      		adiw r26,11
 1482 087e ED91      		ld r30,X+
 1483 0880 FC91      		ld r31,X
 1484 0882 1C97      		sbiw r26,11+1
 1485               	.L42:
 1486 0884 8081      		ld r24,Z
 1487 0886 1D96      		adiw r26,13
 1488 0888 2C91      		ld r18,X
 1489 088a 1D97      		sbiw r26,13
 1490 088c 90E0      		ldi r25,lo8(0)
 1491 088e 00C0      		rjmp 2f
 1492 0890 9595      	1:	asr r25
 1493 0892 8795      		ror r24
 1494 0894 2A95      	2:	dec r18
 1495 0896 02F4      		brpl 1b
 1496 0898 80FF      		sbrs r24,0
 1497 089a 00C0      		rjmp .L42
 1498 089c 1796      		adiw r26,7
 1499 089e ED91      		ld r30,X+
 1500 08a0 FC91      		ld r31,X
 1501 08a2 1897      		sbiw r26,7+1
 1502 08a4 2081      		ld r18,Z
 1503 08a6 1D96      		adiw r26,13
 1504 08a8 3C91      		ld r19,X
 1505 08aa 1D97      		sbiw r26,13
 1506 08ac 81E0      		ldi r24,lo8(1)
 1507 08ae 90E0      		ldi r25,hi8(1)
 1508 08b0 00C0      		rjmp 2f
 1509 08b2 880F      	1:	lsl r24
 1510 08b4 991F      		rol r25
 1511 08b6 3A95      	2:	dec r19
 1512 08b8 02F4      		brpl 1b
 1513 08ba 282B      		or r18,r24
 1514 08bc 2083      		st Z,r18
 1515               	.LM92:
 1516 08be D396      		adiw r26,51
 1517 08c0 1C92      		st X,__zero_reg__
 1518               	/* epilogue start */
 1519               	.LM93:
 1520 08c2 0895      		ret
 1521               	.LFE10:
 1523               	.global	IPMB0_A_READ
 1525               	IPMB0_A_READ:
 1526               	.LFB14:
 1527               	.LM94:
 1528               	.LVL19:
 1529 08c4 BF92      		push r11
 1530 08c6 CF92      		push r12
 1531 08c8 DF92      		push r13
 1532 08ca EF92      		push r14
 1533 08cc FF92      		push r15
 1534 08ce 0F93      		push r16
 1535 08d0 1F93      		push r17
 1536 08d2 CF93      		push r28
 1537 08d4 DF93      		push r29
 1538               	/* prologue: function */
 1539               	/* frame size = 0 */
 1540 08d6 EC01      		movw r28,r24
 1541               	.LM95:
 1542 08d8 E881      		ld r30,Y
 1543 08da F981      		ldd r31,Y+1
 1544 08dc 4081      		ld r20,Z
 1545 08de 21E0      		ldi r18,lo8(1)
 1546 08e0 30E0      		ldi r19,hi8(1)
 1547 08e2 C901      		movw r24,r18
 1548               	.LVL20:
 1549 08e4 0E80      		ldd r0,Y+6
 1550 08e6 00C0      		rjmp 2f
 1551 08e8 880F      	1:	lsl r24
 1552 08ea 991F      		rol r25
 1553 08ec 0A94      	2:	dec r0
 1554 08ee 02F4      		brpl 1b
 1555 08f0 8095      		com r24
 1556 08f2 8423      		and r24,r20
 1557 08f4 8083      		st Z,r24
 1558               	.LM96:
 1559 08f6 EF81      		ldd r30,Y+7
 1560 08f8 F885      		ldd r31,Y+8
 1561 08fa 9081      		ld r25,Z
 1562 08fc 8D85      		ldd r24,Y+13
 1563 08fe 00C0      		rjmp 2f
 1564 0900 220F      	1:	lsl r18
 1565 0902 331F      		rol r19
 1566 0904 8A95      	2:	dec r24
 1567 0906 02F4      		brpl 1b
 1568 0908 2095      		com r18
 1569 090a 2923      		and r18,r25
 1570 090c 2083      		st Z,r18
 1571               	.LM97:
 1572 090e 1092 0000 		sts IPMI0_A_ws+8,__zero_reg__
 1573               	.LM98:
 1574 0912 1092 0000 		sts IPMI0_A_ws+7,__zero_reg__
 1575               	.LM99:
 1576 0916 1092 0000 		sts IPMI0_A_ws+6,__zero_reg__
 1577               	.LM100:
 1578 091a 1BAA      		std Y+51,__zero_reg__
 1579               	.LM101:
 1580 091c 10E2      		ldi r17,lo8(32)
 1581               	.LM102:
 1582 091e 37E0      		ldi r19,lo8(7)
 1583 0920 E32E      		mov r14,r19
 1584               	.LM103:
 1585 0922 02E0      		ldi r16,lo8(2)
 1586               	.LM104:
 1587 0924 24E0      		ldi r18,lo8(4)
 1588 0926 D22E      		mov r13,r18
 1589               	.LM105:
 1590 0928 93E0      		ldi r25,lo8(3)
 1591 092a F92E      		mov r15,r25
 1592               	.LM106:
 1593 092c CC24      		clr r12
 1594 092e C394      		inc r12
 1595               	.LM107:
 1596 0930 88E0      		ldi r24,lo8(8)
 1597 0932 B82E      		mov r11,r24
 1598               	.L77:
 1599               	.LM108:
 1600 0934 88B3      		in r24,56-32
 1601 0936 8127      		eor r24,r17
 1602 0938 88BB      		out 56-32,r24
 1603               	.LM109:
 1604 093a 9BA9      		ldd r25,Y+51
 1605 093c 9330      		cpi r25,lo8(3)
 1606 093e 01F0      		breq .L50
 1607               	.L84:
 1608 0940 9430      		cpi r25,lo8(4)
 1609 0942 00F4      		brsh .L55
 1610 0944 9130      		cpi r25,lo8(1)
 1611 0946 01F4      		brne .+2
 1612 0948 00C0      		rjmp .L48
 1613 094a 9230      		cpi r25,lo8(2)
 1614 094c 00F4      		brsh .+2
 1615 094e 00C0      		rjmp .L81
 1616               	.LM110:
 1617 0950 99B3      		in r25,57-32
 1618 0952 9470      		andi r25,lo8(4)
 1619 0954 9093 0000 		sts sda_pin,r25
 1620               	.LM111:
 1621 0958 8091 6300 		lds r24,99
 1622 095c 8470      		andi r24,lo8(4)
 1623 095e 8093 0000 		sts scl_pin,r24
 1624               	.LM112:
 1625 0962 8823      		tst r24
 1626 0964 01F4      		brne .+2
 1627 0966 00C0      		rjmp .L82
 1628               	.LM113:
 1629 0968 9923      		tst r25
 1630 096a 01F0      		breq .L77
 1631 096c 8091 0000 		lds r24,IPMI0_A_ws+7
 1632 0970 8823      		tst r24
 1633 0972 01F4      		brne .L77
 1634               	.LM114:
 1635 0974 C498      		cbi 56-32,4
 1636               	.LM115:
 1637 0976 DBAA      		std Y+51,r13
 1638 0978 00C0      		rjmp .L77
 1639               	.L55:
 1640               	.LM116:
 1641 097a 9730      		cpi r25,lo8(7)
 1642 097c 01F4      		brne .+2
 1643 097e 00C0      		rjmp .L52
 1644 0980 9830      		cpi r25,lo8(8)
 1645 0982 00F4      		brsh .+2
 1646 0984 00C0      		rjmp .L83
 1647 0986 9830      		cpi r25,lo8(8)
 1648 0988 01F4      		brne .+2
 1649 098a 00C0      		rjmp .L53
 1650 098c 9930      		cpi r25,lo8(9)
 1651 098e 01F0      		breq .+2
 1652 0990 00C0      		rjmp .L46
 1653               	.L54:
 1654               	.LM117:
 1655 0992 80E0      		ldi r24,lo8(__c.4120)
 1656 0994 90E0      		ldi r25,hi8(__c.4120)
 1657 0996 0E94 0000 		call printfr
 1658               	.LM118:
 1659 099a 1092 0000 		sts IPMI0_A_ws+30,__zero_reg__
 1660               	.LM119:
 1661 099e 1BAA      		std Y+51,__zero_reg__
 1662               	.L87:
 1663               	.LM120:
 1664 09a0 88B3      		in r24,56-32
 1665 09a2 8127      		eor r24,r17
 1666 09a4 88BB      		out 56-32,r24
 1667               	.LM121:
 1668 09a6 9BA9      		ldd r25,Y+51
 1669 09a8 9330      		cpi r25,lo8(3)
 1670 09aa 01F4      		brne .L84
 1671               	.L50:
 1672               	.LM122:
 1673 09ac 8091 6300 		lds r24,99
 1674 09b0 82FF      		sbrs r24,2
 1675 09b2 00C0      		rjmp .L77
 1676               	.LM123:
 1677 09b4 89B3      		in r24,57-32
 1678 09b6 8470      		andi r24,lo8(4)
 1679 09b8 8093 0000 		sts IPMI0_A_ws+7,r24
 1680               	.LM124:
 1681 09bc 9091 0000 		lds r25,IPMI0_A_ws+8
 1682 09c0 990F      		lsl r25
 1683 09c2 9093 0000 		sts IPMI0_A_ws+8,r25
 1684               	.LM125:
 1685 09c6 8823      		tst r24
 1686 09c8 01F0      		breq .L61
 1687 09ca 9160      		ori r25,lo8(1)
 1688 09cc 9093 0000 		sts IPMI0_A_ws+8,r25
 1689               	.L61:
 1690               	.LM126:
 1691 09d0 8091 0000 		lds r24,IPMI0_A_ws+6
 1692 09d4 8F5F      		subi r24,lo8(-(1))
 1693 09d6 8093 0000 		sts IPMI0_A_ws+6,r24
 1694               	.LM127:
 1695 09da 8830      		cpi r24,lo8(8)
 1696 09dc 00F4      		brsh .+2
 1697 09de 00C0      		rjmp .L62
 1698               	.LM128:
 1699 09e0 0BAB      		std Y+51,r16
 1700               	.LM129:
 1701 09e2 8091 0000 		lds r24,IPMI0_A_ws+4
 1702 09e6 9091 0000 		lds r25,IPMI0_A_ws+8
 1703 09ea E82F      		mov r30,r24
 1704 09ec F0E0      		ldi r31,lo8(0)
 1705 09ee E050      		subi r30,lo8(-(IPMI0_A_ws))
 1706 09f0 F040      		sbci r31,hi8(-(IPMI0_A_ws))
 1707 09f2 94AB      		std Z+52,r25
 1708 09f4 8F5F      		subi r24,lo8(-(1))
 1709 09f6 8093 0000 		sts IPMI0_A_ws+4,r24
 1710               	.LM130:
 1711 09fa 8823      		tst r24
 1712 09fc 01F4      		brne .+2
 1713 09fe 00C0      		rjmp .L85
 1714               	.L63:
 1715               	.LM131:
 1716 0a00 1092 0000 		sts IPMI0_A_ws+30,__zero_reg__
 1717               	.LM132:
 1718 0a04 8091 6300 		lds r24,99
 1719 0a08 82FF      		sbrs r24,2
 1720 0a0a 00C0      		rjmp .L64
 1721 0a0c 90E0      		ldi r25,lo8(0)
 1722               	.L65:
 1723 0a0e 9F5F      		subi r25,lo8(-(1))
 1724 0a10 8091 6300 		lds r24,99
 1725 0a14 82FD      		sbrc r24,2
 1726 0a16 00C0      		rjmp .L65
 1727 0a18 9093 0000 		sts IPMI0_A_ws+30,r25
 1728               	.L64:
 1729               	.LM133:
 1730 0a1c D29A      		sbi 58-32,2
 1731               	.LM134:
 1732 0a1e DA98      		cbi 59-32,2
 1733               	.LM135:
 1734 0a20 1092 0000 		sts IPMI0_A_ws+30,__zero_reg__
 1735               	.L80:
 1736               	.LM136:
 1737 0a24 8091 6300 		lds r24,99
 1738 0a28 82FF      		sbrs r24,2
 1739 0a2a 00C0      		rjmp .L80
 1740               	.LM137:
 1741 0a2c 1092 0000 		sts IPMI0_A_ws+30,__zero_reg__
 1742               	.LM138:
 1743 0a30 8091 6300 		lds r24,99
 1744 0a34 82FF      		sbrs r24,2
 1745 0a36 00C0      		rjmp .L68
 1746 0a38 90E0      		ldi r25,lo8(0)
 1747               	.L69:
 1748 0a3a 9F5F      		subi r25,lo8(-(1))
 1749 0a3c 8091 6300 		lds r24,99
 1750 0a40 82FD      		sbrc r24,2
 1751 0a42 00C0      		rjmp .L69
 1752 0a44 9093 0000 		sts IPMI0_A_ws+30,r25
 1753               	.L68:
 1754               	.LM139:
 1755 0a48 D298      		cbi 58-32,2
 1756               	.LM140:
 1757 0a4a DA9A      		sbi 59-32,2
 1758               	.LM141:
 1759 0a4c 1092 0000 		sts IPMI0_A_ws+8,__zero_reg__
 1760               	.LM142:
 1761 0a50 1092 0000 		sts IPMI0_A_ws+6,__zero_reg__
 1762 0a54 00C0      		rjmp .L77
 1763               	.L83:
 1764               	.LM143:
 1765 0a56 9430      		cpi r25,lo8(4)
 1766 0a58 01F4      		brne .+2
 1767 0a5a 00C0      		rjmp .L86
 1768               	.L46:
 1769               	.LM144:
 1770 0a5c 80E0      		ldi r24,lo8(__c.4127)
 1771 0a5e 90E0      		ldi r25,hi8(__c.4127)
 1772 0a60 0E94 0000 		call printfr
 1773               	.LM145:
 1774 0a64 1BAA      		std Y+51,__zero_reg__
 1775 0a66 00C0      		rjmp .L77
 1776               	.L81:
 1777               	.LM146:
 1778 0a68 CA9B      		sbis 57-32,2
 1779 0a6a 00C0      		rjmp .L77
 1780 0a6c 8091 6300 		lds r24,99
 1781 0a70 82FF      		sbrs r24,2
 1782 0a72 00C0      		rjmp .L77
 1783               	.LM147:
 1784 0a74 8091 0000 		lds r24,IPMI0_A_ws+26
 1785 0a78 9091 0000 		lds r25,(IPMI0_A_ws+26)+1
 1786 0a7c A091 0000 		lds r26,(IPMI0_A_ws+26)+2
 1787 0a80 B091 0000 		lds r27,(IPMI0_A_ws+26)+3
 1788 0a84 0196      		adiw r24,1
 1789 0a86 A11D      		adc r26,__zero_reg__
 1790 0a88 B11D      		adc r27,__zero_reg__
 1791 0a8a 8093 0000 		sts IPMI0_A_ws+26,r24
 1792 0a8e 9093 0000 		sts (IPMI0_A_ws+26)+1,r25
 1793 0a92 A093 0000 		sts (IPMI0_A_ws+26)+2,r26
 1794 0a96 B093 0000 		sts (IPMI0_A_ws+26)+3,r27
 1795               	.LM148:
 1796 0a9a 4097      		sbiw r24,16
 1797 0a9c A105      		cpc r26,__zero_reg__
 1798 0a9e B105      		cpc r27,__zero_reg__
 1799 0aa0 00F4      		brsh .+2
 1800 0aa2 00C0      		rjmp .L77
 1801               	.LM149:
 1802 0aa4 1092 0000 		sts IPMI0_A_ws+8,__zero_reg__
 1803               	.LM150:
 1804 0aa8 1092 0000 		sts IPMI0_A_ws+6,__zero_reg__
 1805               	.LM151:
 1806 0aac 1092 0000 		sts IPMI0_A_ws+4,__zero_reg__
 1807               	.LM152:
 1808 0ab0 CBAA      		std Y+51,r12
 1809               	.LM153:
 1810 0ab2 1092 0000 		sts IPMI0_A_ws+26,__zero_reg__
 1811 0ab6 1092 0000 		sts (IPMI0_A_ws+26)+1,__zero_reg__
 1812 0aba 1092 0000 		sts (IPMI0_A_ws+26)+2,__zero_reg__
 1813 0abe 1092 0000 		sts (IPMI0_A_ws+26)+3,__zero_reg__
 1814 0ac2 00C0      		rjmp .L77
 1815               	.L53:
 1816               	.LM154:
 1817 0ac4 20E0      		ldi r18,lo8(0)
 1818 0ac6 30E0      		ldi r19,hi8(0)
 1819               	.L70:
 1820               	.LM155:
 1821 0ac8 C901      		movw r24,r18
 1822               	/* epilogue start */
 1823 0aca DF91      		pop r29
 1824 0acc CF91      		pop r28
 1825               	.LVL21:
 1826 0ace 1F91      		pop r17
 1827 0ad0 0F91      		pop r16
 1828 0ad2 FF90      		pop r15
 1829 0ad4 EF90      		pop r14
 1830 0ad6 DF90      		pop r13
 1831 0ad8 CF90      		pop r12
 1832 0ada BF90      		pop r11
 1833 0adc 0895      		ret
 1834               	.LVL22:
 1835               	.L52:
 1836               	.LM156:
 1837 0ade 80E0      		ldi r24,lo8(__c.4117)
 1838 0ae0 90E0      		ldi r25,hi8(__c.4117)
 1839 0ae2 0E94 0000 		call printfr
 1840               	.LM157:
 1841 0ae6 1092 0000 		sts IPMI0_A_ws+26,__zero_reg__
 1842 0aea 1092 0000 		sts (IPMI0_A_ws+26)+1,__zero_reg__
 1843 0aee 1092 0000 		sts (IPMI0_A_ws+26)+2,__zero_reg__
 1844 0af2 1092 0000 		sts (IPMI0_A_ws+26)+3,__zero_reg__
 1845 0af6 20E0      		ldi r18,lo8(0)
 1846 0af8 30E0      		ldi r19,hi8(0)
 1847 0afa 00C0      		rjmp .L70
 1848               	.L86:
 1849               	.LM158:
 1850 0afc 80E0      		ldi r24,lo8(__c.4124)
 1851 0afe 90E0      		ldi r25,hi8(__c.4124)
 1852 0b00 0E94 0000 		call printfr
 1853 0b04 20E0      		ldi r18,lo8(IPMI0_A_ws)
 1854 0b06 30E0      		ldi r19,hi8(IPMI0_A_ws)
 1855 0b08 00C0      		rjmp .L70
 1856               	.L48:
 1857               	.LM159:
 1858 0b0a 8091 6300 		lds r24,99
 1859 0b0e 82FF      		sbrs r24,2
 1860 0b10 00C0      		rjmp .L58
 1861               	.LM160:
 1862 0b12 CA99      		sbic 57-32,2
 1863 0b14 00C0      		rjmp .L59
 1864               	.LM161:
 1865 0b16 0BAB      		std Y+51,r16
 1866               	.LM162:
 1867 0b18 9093 0000 		sts IPMI0_A_ws+18,r25
 1868               	.LM163:
 1869 0b1c C49A      		sbi 56-32,4
 1870               	.LM164:
 1871 0b1e 1092 0000 		sts IPMI0_A_ws+26,__zero_reg__
 1872 0b22 1092 0000 		sts (IPMI0_A_ws+26)+1,__zero_reg__
 1873 0b26 1092 0000 		sts (IPMI0_A_ws+26)+2,__zero_reg__
 1874 0b2a 1092 0000 		sts (IPMI0_A_ws+26)+3,__zero_reg__
 1875 0b2e 00C0      		rjmp .L77
 1876               	.L59:
 1877               	.LM165:
 1878 0b30 8091 0000 		lds r24,IPMI0_A_ws+26
 1879 0b34 9091 0000 		lds r25,(IPMI0_A_ws+26)+1
 1880 0b38 A091 0000 		lds r26,(IPMI0_A_ws+26)+2
 1881 0b3c B091 0000 		lds r27,(IPMI0_A_ws+26)+3
 1882 0b40 0196      		adiw r24,1
 1883 0b42 A11D      		adc r26,__zero_reg__
 1884 0b44 B11D      		adc r27,__zero_reg__
 1885 0b46 8093 0000 		sts IPMI0_A_ws+26,r24
 1886 0b4a 9093 0000 		sts (IPMI0_A_ws+26)+1,r25
 1887 0b4e A093 0000 		sts (IPMI0_A_ws+26)+2,r26
 1888 0b52 B093 0000 		sts (IPMI0_A_ws+26)+3,r27
 1889               	.LM166:
 1890 0b56 8150      		subi r24,lo8(640001)
 1891 0b58 944C      		sbci r25,hi8(640001)
 1892 0b5a A940      		sbci r26,hlo8(640001)
 1893 0b5c B040      		sbci r27,hhi8(640001)
 1894 0b5e 00F0      		brlo .L58
 1895 0b60 EBAA      		std Y+51,r14
 1896               	.L58:
 1897               	.LM167:
 1898 0b62 8091 6300 		lds r24,99
 1899 0b66 82FD      		sbrc r24,2
 1900 0b68 00C0      		rjmp .L77
 1901               	.LM168:
 1902 0b6a 1BAA      		std Y+51,__zero_reg__
 1903 0b6c 00C0      		rjmp .L87
 1904               	.L82:
 1905               	.LM169:
 1906 0b6e FBAA      		std Y+51,r15
 1907 0b70 00C0      		rjmp .L77
 1908               	.L62:
 1909               	.LM170:
 1910 0b72 0BAB      		std Y+51,r16
 1911 0b74 00C0      		rjmp .L77
 1912               	.L85:
 1913               	.LM171:
 1914 0b76 9032      		cpi r25,lo8(32)
 1915 0b78 01F4      		brne .+2
 1916 0b7a 00C0      		rjmp .L63
 1917               	.LM172:
 1918 0b7c 80E0      		ldi r24,lo8(__c.4104)
 1919 0b7e 90E0      		ldi r25,hi8(__c.4104)
 1920 0b80 0E94 0000 		call printfr
 1921               	.LM173:
 1922 0b84 BBAA      		std Y+51,r11
 1923 0b86 00C0      		rjmp .L63
 1924               	.LFE14:
 1926               	.global	i2c_bus_init
 1928               	i2c_bus_init:
 1929               	.LFB6:
 1930               	.LM174:
 1931               	/* prologue: function */
 1932               	/* frame size = 0 */
 1933               	.LBB126:
 1934               	.LBB127:
 1935               	.LM175:
 1936 0b88 82E0      		ldi r24,lo8(2)
 1937 0b8a 8093 0000 		sts i2c_context+13,r24
 1938               	.LM176:
 1939 0b8e 64E3      		ldi r22,lo8(52)
 1940 0b90 70E0      		ldi r23,hi8(52)
 1941 0b92 7093 0000 		sts (i2c_context+7)+1,r23
 1942 0b96 6093 0000 		sts i2c_context+7,r22
 1943               	.LM177:
 1944 0b9a 43E3      		ldi r20,lo8(51)
 1945 0b9c 50E0      		ldi r21,hi8(51)
 1946 0b9e 5093 0000 		sts (i2c_context+11)+1,r21
 1947 0ba2 4093 0000 		sts i2c_context+11,r20
 1948               	.LM178:
 1949 0ba6 25E3      		ldi r18,lo8(53)
 1950 0ba8 30E0      		ldi r19,hi8(53)
 1951 0baa 3093 0000 		sts (i2c_context+9)+1,r19
 1952 0bae 2093 0000 		sts i2c_context+9,r18
 1953               	.LM179:
 1954 0bb2 83E0      		ldi r24,lo8(3)
 1955 0bb4 8093 0000 		sts i2c_context+6,r24
 1956               	.LM180:
 1957 0bb8 7093 0000 		sts (i2c_context)+1,r23
 1958 0bbc 6093 0000 		sts i2c_context,r22
 1959               	.LM181:
 1960 0bc0 5093 0000 		sts (i2c_context+4)+1,r21
 1961 0bc4 4093 0000 		sts i2c_context+4,r20
 1962               	.LM182:
 1963 0bc8 3093 0000 		sts (i2c_context+2)+1,r19
 1964 0bcc 2093 0000 		sts i2c_context+2,r18
 1965               	.LM183:
 1966 0bd0 A39A      		sbi 52-32,3
 1967               	.LM184:
 1968 0bd2 44B3      		in r20,52-32
 1969 0bd4 8091 0000 		lds r24,i2c_context+13
 1970 0bd8 21E0      		ldi r18,lo8(1)
 1971 0bda 30E0      		ldi r19,hi8(1)
 1972 0bdc B901      		movw r22,r18
 1973 0bde 00C0      		rjmp 2f
 1974 0be0 660F      	1:	lsl r22
 1975 0be2 771F      		rol r23
 1976 0be4 8A95      	2:	dec r24
 1977 0be6 02F4      		brpl 1b
 1978 0be8 462B      		or r20,r22
 1979 0bea 44BB      		out 52-32,r20
 1980               	.LM185:
 1981 0bec AB9A      		sbi 53-32,3
 1982               	.LM186:
 1983 0bee 45B3      		in r20,53-32
 1984 0bf0 8091 0000 		lds r24,i2c_context+13
 1985 0bf4 B901      		movw r22,r18
 1986 0bf6 00C0      		rjmp 2f
 1987 0bf8 660F      	1:	lsl r22
 1988 0bfa 771F      		rol r23
 1989 0bfc 8A95      	2:	dec r24
 1990 0bfe 02F4      		brpl 1b
 1991 0c00 462B      		or r20,r22
 1992 0c02 45BB      		out 53-32,r20
 1993 0c04 94B3      		in r25,52-32
 1994 0c06 8091 0000 		lds r24,i2c_context+13
 1995 0c0a 00C0      		rjmp 2f
 1996 0c0c 220F      	1:	lsl r18
 1997 0c0e 331F      		rol r19
 1998 0c10 8A95      	2:	dec r24
 1999 0c12 02F4      		brpl 1b
 2000 0c14 2095      		com r18
 2001 0c16 2923      		and r18,r25
 2002 0c18 24BB      		out 52-32,r18
 2003               	.L89:
 2004 0c1a 83B3      		in r24,51-32
 2005 0c1c 2091 0000 		lds r18,i2c_context+13
 2006 0c20 90E0      		ldi r25,lo8(0)
 2007 0c22 00C0      		rjmp 2f
 2008 0c24 9595      	1:	asr r25
 2009 0c26 8795      		ror r24
 2010 0c28 2A95      	2:	dec r18
 2011 0c2a 02F4      		brpl 1b
 2012 0c2c 80FF      		sbrs r24,0
 2013 0c2e 00C0      		rjmp .L89
 2014 0c30 24B3      		in r18,52-32
 2015 0c32 8091 0000 		lds r24,i2c_context+13
 2016 0c36 41E0      		ldi r20,lo8(1)
 2017 0c38 50E0      		ldi r21,hi8(1)
 2018 0c3a BA01      		movw r22,r20
 2019 0c3c 00C0      		rjmp 2f
 2020 0c3e 660F      	1:	lsl r22
 2021 0c40 771F      		rol r23
 2022 0c42 8A95      	2:	dec r24
 2023 0c44 02F4      		brpl 1b
 2024 0c46 262B      		or r18,r22
 2025 0c48 24BB      		out 52-32,r18
 2026               	.LM187:
 2027 0c4a 1092 0000 		sts i2c_context+51,__zero_reg__
 2028               	.LBE127:
 2029               	.LBE126:
 2030               	.LBB128:
 2031               	.LBB129:
 2032               	.LM188:
 2033 0c4e 22E0      		ldi r18,lo8(2)
 2034 0c50 2093 0000 		sts i2c_context+65,r18
 2035               	.LM189:
 2036 0c54 84E6      		ldi r24,lo8(100)
 2037 0c56 90E0      		ldi r25,hi8(100)
 2038 0c58 9093 0000 		sts (i2c_context+59)+1,r25
 2039 0c5c 8093 0000 		sts i2c_context+59,r24
 2040               	.LM190:
 2041 0c60 83E6      		ldi r24,lo8(99)
 2042 0c62 90E0      		ldi r25,hi8(99)
 2043 0c64 9093 0000 		sts (i2c_context+63)+1,r25
 2044 0c68 8093 0000 		sts i2c_context+63,r24
 2045               	.LM191:
 2046 0c6c 85E6      		ldi r24,lo8(101)
 2047 0c6e 90E0      		ldi r25,hi8(101)
 2048 0c70 9093 0000 		sts (i2c_context+61)+1,r25
 2049 0c74 8093 0000 		sts i2c_context+61,r24
 2050               	.LM192:
 2051 0c78 2093 0000 		sts i2c_context+58,r18
 2052               	.LM193:
 2053 0c7c 8AE3      		ldi r24,lo8(58)
 2054 0c7e 90E0      		ldi r25,hi8(58)
 2055 0c80 9093 0000 		sts (i2c_context+52)+1,r25
 2056 0c84 8093 0000 		sts i2c_context+52,r24
 2057               	.LM194:
 2058 0c88 89E3      		ldi r24,lo8(57)
 2059 0c8a 90E0      		ldi r25,hi8(57)
 2060 0c8c 9093 0000 		sts (i2c_context+56)+1,r25
 2061 0c90 8093 0000 		sts i2c_context+56,r24
 2062               	.LM195:
 2063 0c94 8BE3      		ldi r24,lo8(59)
 2064 0c96 90E0      		ldi r25,hi8(59)
 2065 0c98 9093 0000 		sts (i2c_context+54)+1,r25
 2066 0c9c 8093 0000 		sts i2c_context+54,r24
 2067               	.LM196:
 2068 0ca0 D29A      		sbi 58-32,2
 2069               	.LM197:
 2070 0ca2 2091 6400 		lds r18,100
 2071 0ca6 8091 0000 		lds r24,i2c_context+65
 2072 0caa BA01      		movw r22,r20
 2073 0cac 00C0      		rjmp 2f
 2074 0cae 660F      	1:	lsl r22
 2075 0cb0 771F      		rol r23
 2076 0cb2 8A95      	2:	dec r24
 2077 0cb4 02F4      		brpl 1b
 2078 0cb6 262B      		or r18,r22
 2079 0cb8 2093 6400 		sts 100,r18
 2080               	.LM198:
 2081 0cbc DA9A      		sbi 59-32,2
 2082               	.LM199:
 2083 0cbe 2091 6500 		lds r18,101
 2084 0cc2 8091 0000 		lds r24,i2c_context+65
 2085 0cc6 BA01      		movw r22,r20
 2086 0cc8 00C0      		rjmp 2f
 2087 0cca 660F      	1:	lsl r22
 2088 0ccc 771F      		rol r23
 2089 0cce 8A95      	2:	dec r24
 2090 0cd0 02F4      		brpl 1b
 2091 0cd2 262B      		or r18,r22
 2092 0cd4 2093 6500 		sts 101,r18
 2093 0cd8 9091 6400 		lds r25,100
 2094 0cdc 8091 0000 		lds r24,i2c_context+65
 2095 0ce0 00C0      		rjmp 2f
 2096 0ce2 440F      	1:	lsl r20
 2097 0ce4 551F      		rol r21
 2098 0ce6 8A95      	2:	dec r24
 2099 0ce8 02F4      		brpl 1b
 2100 0cea 4095      		com r20
 2101 0cec 4923      		and r20,r25
 2102 0cee 4093 6400 		sts 100,r20
 2103               	.L90:
 2104 0cf2 8091 6300 		lds r24,99
 2105 0cf6 2091 0000 		lds r18,i2c_context+65
 2106 0cfa 90E0      		ldi r25,lo8(0)
 2107 0cfc 00C0      		rjmp 2f
 2108 0cfe 9595      	1:	asr r25
 2109 0d00 8795      		ror r24
 2110 0d02 2A95      	2:	dec r18
 2111 0d04 02F4      		brpl 1b
 2112 0d06 80FF      		sbrs r24,0
 2113 0d08 00C0      		rjmp .L90
 2114 0d0a 2091 6400 		lds r18,100
 2115 0d0e 8091 0000 		lds r24,i2c_context+65
 2116 0d12 41E0      		ldi r20,lo8(1)
 2117 0d14 50E0      		ldi r21,hi8(1)
 2118 0d16 BA01      		movw r22,r20
 2119 0d18 00C0      		rjmp 2f
 2120 0d1a 660F      	1:	lsl r22
 2121 0d1c 771F      		rol r23
 2122 0d1e 8A95      	2:	dec r24
 2123 0d20 02F4      		brpl 1b
 2124 0d22 262B      		or r18,r22
 2125 0d24 2093 6400 		sts 100,r18
 2126               	.LM200:
 2127 0d28 1092 0000 		sts i2c_context+103,__zero_reg__
 2128               	.LBE129:
 2129               	.LBE128:
 2130               	.LBB130:
 2131               	.LBB131:
 2132               	.LM201:
 2133 0d2c 81E0      		ldi r24,lo8(1)
 2134 0d2e 8093 0000 		sts i2c_context+117,r24
 2135               	.LM202:
 2136 0d32 6AE3      		ldi r22,lo8(58)
 2137 0d34 70E0      		ldi r23,hi8(58)
 2138 0d36 7093 0000 		sts (i2c_context+111)+1,r23
 2139 0d3a 6093 0000 		sts i2c_context+111,r22
 2140               	.LM203:
 2141 0d3e 29E3      		ldi r18,lo8(57)
 2142 0d40 30E0      		ldi r19,hi8(57)
 2143 0d42 3093 0000 		sts (i2c_context+115)+1,r19
 2144 0d46 2093 0000 		sts i2c_context+115,r18
 2145               	.LM204:
 2146 0d4a 8BE3      		ldi r24,lo8(59)
 2147 0d4c 90E0      		ldi r25,hi8(59)
 2148 0d4e 9093 0000 		sts (i2c_context+113)+1,r25
 2149 0d52 8093 0000 		sts i2c_context+113,r24
 2150               	.LM205:
 2151 0d56 1092 0000 		sts i2c_context+110,__zero_reg__
 2152               	.LM206:
 2153 0d5a 7093 0000 		sts (i2c_context+104)+1,r23
 2154 0d5e 6093 0000 		sts i2c_context+104,r22
 2155               	.LM207:
 2156 0d62 3093 0000 		sts (i2c_context+108)+1,r19
 2157 0d66 2093 0000 		sts i2c_context+108,r18
 2158               	.LM208:
 2159 0d6a 9093 0000 		sts (i2c_context+106)+1,r25
 2160 0d6e 8093 0000 		sts i2c_context+106,r24
 2161               	.LM209:
 2162 0d72 D09A      		sbi 58-32,0
 2163               	.LM210:
 2164 0d74 2AB3      		in r18,58-32
 2165 0d76 8091 0000 		lds r24,i2c_context+117
 2166 0d7a BA01      		movw r22,r20
 2167 0d7c 00C0      		rjmp 2f
 2168 0d7e 660F      	1:	lsl r22
 2169 0d80 771F      		rol r23
 2170 0d82 8A95      	2:	dec r24
 2171 0d84 02F4      		brpl 1b
 2172 0d86 262B      		or r18,r22
 2173 0d88 2ABB      		out 58-32,r18
 2174               	.LM211:
 2175 0d8a D89A      		sbi 59-32,0
 2176               	.LM212:
 2177 0d8c 2BB3      		in r18,59-32
 2178 0d8e 8091 0000 		lds r24,i2c_context+117
 2179 0d92 BA01      		movw r22,r20
 2180 0d94 00C0      		rjmp 2f
 2181 0d96 660F      	1:	lsl r22
 2182 0d98 771F      		rol r23
 2183 0d9a 8A95      	2:	dec r24
 2184 0d9c 02F4      		brpl 1b
 2185 0d9e 262B      		or r18,r22
 2186 0da0 2BBB      		out 59-32,r18
 2187 0da2 9AB3      		in r25,58-32
 2188 0da4 8091 0000 		lds r24,i2c_context+117
 2189 0da8 00C0      		rjmp 2f
 2190 0daa 440F      	1:	lsl r20
 2191 0dac 551F      		rol r21
 2192 0dae 8A95      	2:	dec r24
 2193 0db0 02F4      		brpl 1b
 2194 0db2 4095      		com r20
 2195 0db4 4923      		and r20,r25
 2196 0db6 4ABB      		out 58-32,r20
 2197               	.L91:
 2198 0db8 89B3      		in r24,57-32
 2199 0dba 2091 0000 		lds r18,i2c_context+117
 2200 0dbe 90E0      		ldi r25,lo8(0)
 2201 0dc0 00C0      		rjmp 2f
 2202 0dc2 9595      	1:	asr r25
 2203 0dc4 8795      		ror r24
 2204 0dc6 2A95      	2:	dec r18
 2205 0dc8 02F4      		brpl 1b
 2206 0dca 80FF      		sbrs r24,0
 2207 0dcc 00C0      		rjmp .L91
 2208 0dce 8AB3      		in r24,58-32
 2209 0dd0 9091 0000 		lds r25,i2c_context+117
 2210 0dd4 21E0      		ldi r18,lo8(1)
 2211 0dd6 30E0      		ldi r19,hi8(1)
 2212 0dd8 00C0      		rjmp 2f
 2213 0dda 220F      	1:	lsl r18
 2214 0ddc 331F      		rol r19
 2215 0dde 9A95      	2:	dec r25
 2216 0de0 02F4      		brpl 1b
 2217 0de2 822B      		or r24,r18
 2218 0de4 8ABB      		out 58-32,r24
 2219               	.LM213:
 2220 0de6 1092 0000 		sts i2c_context+155,__zero_reg__
 2221               	/* epilogue start */
 2222               	.LBE131:
 2223               	.LBE130:
 2224               	.LM214:
 2225 0dea 0895      		ret
 2226               	.LFE6:
 2228               		.data
 2229               	.LC0:
 2230 0000 0A0D 6932 		.string	"\n\ri2c_Send\n\raddr %X LEN: 0x%02X - "
 2230      635F 5365 
 2230      6E64 0A0D 
 2230      6164 6472 
 2230      2025 5820 
 2231               	.LC1:
 2232 0023 2030 7825 		.string	" 0x%02X "
 2232      3032 5820 
 2232      00
 2233               	.LC2:
 2234 002c 0A0D 00   		.string	"\n\r"
 2235               	.LC3:
 2236 002f 4572 726F 		.string	"Error NACK 1 slave_addr %02X"
 2236      7220 4E41 
 2236      434B 2031 
 2236      2073 6C61 
 2236      7665 5F61 
 2237               	.LC4:
 2238 004c 4572 726F 		.string	"Error NACK Data slave_addr %02X"
 2238      7220 4E41 
 2238      434B 2044 
 2238      6174 6120 
 2238      736C 6176 
 2239               		.text
 2240               	.global	i2c_Send
 2242               	i2c_Send:
 2243               	.LFB12:
 2244               	.LM215:
 2245               	.LVL23:
 2246 0dec 8F92      		push r8
 2247 0dee 9F92      		push r9
 2248 0df0 AF92      		push r10
 2249 0df2 BF92      		push r11
 2250 0df4 CF92      		push r12
 2251 0df6 DF92      		push r13
 2252 0df8 EF92      		push r14
 2253 0dfa FF92      		push r15
 2254 0dfc 0F93      		push r16
 2255 0dfe 1F93      		push r17
 2256 0e00 CF93      		push r28
 2257 0e02 DF93      		push r29
 2258               	/* prologue: function */
 2259               	/* frame size = 0 */
 2260 0e04 EC01      		movw r28,r24
 2261 0e06 C42E      		mov r12,r20
 2262 0e08 5901      		movw r10,r18
 2263               	.LM216:
 2264 0e0a 862E      		mov r8,r22
 2265 0e0c 9924      		clr r9
 2266 0e0e 00D0      		rcall .
 2267 0e10 00D0      		rcall .
 2268 0e12 00D0      		rcall .
 2269 0e14 EDB7      		in r30,__SP_L__
 2270 0e16 FEB7      		in r31,__SP_H__
 2271 0e18 3196      		adiw r30,1
 2272 0e1a 80E0      		ldi r24,lo8(.LC0)
 2273 0e1c 90E0      		ldi r25,hi8(.LC0)
 2274               	.LVL24:
 2275 0e1e ADB7      		in r26,__SP_L__
 2276 0e20 BEB7      		in r27,__SP_H__
 2277 0e22 1296      		adiw r26,1+1
 2278 0e24 9C93      		st X,r25
 2279 0e26 8E93      		st -X,r24
 2280 0e28 1197      		sbiw r26,1
 2281 0e2a 9382      		std Z+3,r9
 2282 0e2c 8282      		std Z+2,r8
 2283 0e2e 4483      		std Z+4,r20
 2284 0e30 1582      		std Z+5,__zero_reg__
 2285 0e32 0E94 0000 		call printf
 2286               	.LVL25:
 2287               	.LM217:
 2288 0e36 EDB7      		in r30,__SP_L__
 2289 0e38 FEB7      		in r31,__SP_H__
 2290 0e3a 3696      		adiw r30,6
 2291 0e3c 0FB6      		in __tmp_reg__,__SREG__
 2292 0e3e F894      		cli
 2293 0e40 FEBF      		out __SP_H__,r31
 2294 0e42 0FBE      		out __SREG__,__tmp_reg__
 2295 0e44 EDBF      		out __SP_L__,r30
 2296 0e46 CC20      		tst r12
 2297 0e48 01F0      		breq .L97
 2298 0e4a DA2C      		mov r13,r10
 2299 0e4c 8501      		movw r16,r10
 2300               	.LVL26:
 2301 0e4e 40E0      		ldi r20,lo8(.LC1)
 2302 0e50 E42E      		mov r14,r20
 2303 0e52 40E0      		ldi r20,hi8(.LC1)
 2304 0e54 F42E      		mov r15,r20
 2305               	.L98:
 2306               	.LM218:
 2307 0e56 00D0      		rcall .
 2308 0e58 00D0      		rcall .
 2309 0e5a EDB7      		in r30,__SP_L__
 2310 0e5c FEB7      		in r31,__SP_H__
 2311 0e5e 3196      		adiw r30,1
 2312 0e60 ADB7      		in r26,__SP_L__
 2313 0e62 BEB7      		in r27,__SP_H__
 2314 0e64 1296      		adiw r26,1+1
 2315 0e66 FC92      		st X,r15
 2316 0e68 EE92      		st -X,r14
 2317 0e6a 1197      		sbiw r26,1
 2318 0e6c D801      		movw r26,r16
 2319 0e6e 8D91      		ld r24,X+
 2320 0e70 8D01      		movw r16,r26
 2321 0e72 8283      		std Z+2,r24
 2322 0e74 1382      		std Z+3,__zero_reg__
 2323 0e76 0E94 0000 		call printf
 2324               	.LM219:
 2325 0e7a 802F      		mov r24,r16
 2326 0e7c 8D19      		sub r24,r13
 2327 0e7e 0F90      		pop __tmp_reg__
 2328 0e80 0F90      		pop __tmp_reg__
 2329 0e82 0F90      		pop __tmp_reg__
 2330 0e84 0F90      		pop __tmp_reg__
 2331 0e86 8C15      		cp r24,r12
 2332 0e88 00F0      		brlo .L98
 2333               	.LVL27:
 2334               	.L97:
 2335               	.LM220:
 2336 0e8a 00D0      		rcall .
 2337 0e8c 80E0      		ldi r24,lo8(.LC2)
 2338 0e8e 90E0      		ldi r25,hi8(.LC2)
 2339 0e90 EDB7      		in r30,__SP_L__
 2340 0e92 FEB7      		in r31,__SP_H__
 2341 0e94 9283      		std Z+2,r25
 2342 0e96 8183      		std Z+1,r24
 2343 0e98 0E94 0000 		call printf
 2344               	.LM221:
 2345 0e9c E881      		ld r30,Y
 2346 0e9e F981      		ldd r31,Y+1
 2347 0ea0 4081      		ld r20,Z
 2348 0ea2 21E0      		ldi r18,lo8(1)
 2349 0ea4 30E0      		ldi r19,hi8(1)
 2350 0ea6 C901      		movw r24,r18
 2351 0ea8 0E80      		ldd r0,Y+6
 2352 0eaa 00C0      		rjmp 2f
 2353 0eac 880F      	1:	lsl r24
 2354 0eae 991F      		rol r25
 2355 0eb0 0A94      	2:	dec r0
 2356 0eb2 02F4      		brpl 1b
 2357 0eb4 482B      		or r20,r24
 2358 0eb6 4083      		st Z,r20
 2359               	.LM222:
 2360 0eb8 EF81      		ldd r30,Y+7
 2361 0eba F885      		ldd r31,Y+8
 2362 0ebc 4081      		ld r20,Z
 2363 0ebe 8D85      		ldd r24,Y+13
 2364 0ec0 7901      		movw r14,r18
 2365 0ec2 00C0      		rjmp 2f
 2366 0ec4 EE0C      	1:	lsl r14
 2367 0ec6 FF1C      		rol r15
 2368 0ec8 8A95      	2:	dec r24
 2369 0eca 02F4      		brpl 1b
 2370 0ecc 4E29      		or r20,r14
 2371 0ece 4083      		st Z,r20
 2372               	.LM223:
 2373 0ed0 E985      		ldd r30,Y+9
 2374 0ed2 FA85      		ldd r31,Y+10
 2375 0ed4 4081      		ld r20,Z
 2376 0ed6 8D85      		ldd r24,Y+13
 2377 0ed8 8901      		movw r16,r18
 2378 0eda 00C0      		rjmp 2f
 2379 0edc 000F      	1:	lsl r16
 2380 0ede 111F      		rol r17
 2381 0ee0 8A95      	2:	dec r24
 2382 0ee2 02F4      		brpl 1b
 2383 0ee4 402B      		or r20,r16
 2384 0ee6 4083      		st Z,r20
 2385 0ee8 EF81      		ldd r30,Y+7
 2386 0eea F885      		ldd r31,Y+8
 2387 0eec 9081      		ld r25,Z
 2388 0eee 8D85      		ldd r24,Y+13
 2389 0ef0 00C0      		rjmp 2f
 2390 0ef2 220F      	1:	lsl r18
 2391 0ef4 331F      		rol r19
 2392 0ef6 8A95      	2:	dec r24
 2393 0ef8 02F4      		brpl 1b
 2394 0efa 2095      		com r18
 2395 0efc 2923      		and r18,r25
 2396 0efe 2083      		st Z,r18
 2397 0f00 EB85      		ldd r30,Y+11
 2398 0f02 FC85      		ldd r31,Y+12
 2399 0f04 0F90      		pop __tmp_reg__
 2400 0f06 0F90      		pop __tmp_reg__
 2401               	.L99:
 2402 0f08 8081      		ld r24,Z
 2403 0f0a 2D85      		ldd r18,Y+13
 2404 0f0c 90E0      		ldi r25,lo8(0)
 2405 0f0e 00C0      		rjmp 2f
 2406 0f10 9595      	1:	asr r25
 2407 0f12 8795      		ror r24
 2408 0f14 2A95      	2:	dec r18
 2409 0f16 02F4      		brpl 1b
 2410 0f18 80FF      		sbrs r24,0
 2411 0f1a 00C0      		rjmp .L99
 2412 0f1c EF81      		ldd r30,Y+7
 2413 0f1e F885      		ldd r31,Y+8
 2414 0f20 2081      		ld r18,Z
 2415 0f22 8D85      		ldd r24,Y+13
 2416 0f24 41E0      		ldi r20,lo8(1)
 2417 0f26 50E0      		ldi r21,hi8(1)
 2418 0f28 BA01      		movw r22,r20
 2419 0f2a 00C0      		rjmp 2f
 2420 0f2c 660F      	1:	lsl r22
 2421 0f2e 771F      		rol r23
 2422 0f30 8A95      	2:	dec r24
 2423 0f32 02F4      		brpl 1b
 2424 0f34 262B      		or r18,r22
 2425 0f36 2083      		st Z,r18
 2426 0f38 EA81      		ldd r30,Y+2
 2427 0f3a FB81      		ldd r31,Y+3
 2428 0f3c 2081      		ld r18,Z
 2429 0f3e CA01      		movw r24,r20
 2430 0f40 0E80      		ldd r0,Y+6
 2431 0f42 00C0      		rjmp 2f
 2432 0f44 880F      	1:	lsl r24
 2433 0f46 991F      		rol r25
 2434 0f48 0A94      	2:	dec r0
 2435 0f4a 02F4      		brpl 1b
 2436 0f4c 282B      		or r18,r24
 2437 0f4e 2083      		st Z,r18
 2438               	.LBB172:
 2439               	.LBB173:
 2440               	.LM224:
 2441               	/* #APP */
 2442               	 ;  45 "i2csw.c" 1
 2443 0f50 0000      		nop
 2444               	 ;  0 "" 2
 2445               	 ;  45 "i2csw.c" 1
 2446 0f52 0000      		nop
 2447               	 ;  0 "" 2
 2448               	 ;  45 "i2csw.c" 1
 2449 0f54 0000      		nop
 2450               	 ;  0 "" 2
 2451               	 ;  45 "i2csw.c" 1
 2452 0f56 0000      		nop
 2453               	 ;  0 "" 2
 2454               	 ;  45 "i2csw.c" 1
 2455 0f58 0000      		nop
 2456               	 ;  0 "" 2
 2457               	/* #NOAPP */
 2458               	.LBE173:
 2459               	.LBE172:
 2460               	.LM225:
 2461 0f5a EA81      		ldd r30,Y+2
 2462 0f5c FB81      		ldd r31,Y+3
 2463 0f5e 2081      		ld r18,Z
 2464 0f60 CA01      		movw r24,r20
 2465 0f62 0E80      		ldd r0,Y+6
 2466 0f64 00C0      		rjmp 2f
 2467 0f66 880F      	1:	lsl r24
 2468 0f68 991F      		rol r25
 2469 0f6a 0A94      	2:	dec r0
 2470 0f6c 02F4      		brpl 1b
 2471 0f6e 8095      		com r24
 2472 0f70 8223      		and r24,r18
 2473 0f72 8083      		st Z,r24
 2474               	.LBB174:
 2475               	.LBB175:
 2476               	.LM226:
 2477               	/* #APP */
 2478               	 ;  45 "i2csw.c" 1
 2479 0f74 0000      		nop
 2480               	 ;  0 "" 2
 2481               	 ;  45 "i2csw.c" 1
 2482 0f76 0000      		nop
 2483               	 ;  0 "" 2
 2484               	 ;  45 "i2csw.c" 1
 2485 0f78 0000      		nop
 2486               	 ;  0 "" 2
 2487               	 ;  45 "i2csw.c" 1
 2488 0f7a 0000      		nop
 2489               	 ;  0 "" 2
 2490               	 ;  45 "i2csw.c" 1
 2491 0f7c 0000      		nop
 2492               	 ;  0 "" 2
 2493               	/* #NOAPP */
 2494               	.LBE175:
 2495               	.LBE174:
 2496               	.LM227:
 2497 0f7e E985      		ldd r30,Y+9
 2498 0f80 FA85      		ldd r31,Y+10
 2499 0f82 9081      		ld r25,Z
 2500 0f84 8D85      		ldd r24,Y+13
 2501 0f86 00C0      		rjmp 2f
 2502 0f88 440F      	1:	lsl r20
 2503 0f8a 551F      		rol r21
 2504 0f8c 8A95      	2:	dec r24
 2505 0f8e 02F4      		brpl 1b
 2506 0f90 4095      		com r20
 2507 0f92 4923      		and r20,r25
 2508 0f94 4083      		st Z,r20
 2509 0f96 47E0      		ldi r20,lo8(7)
 2510 0f98 50E0      		ldi r21,hi8(7)
 2511               	.LBB176:
 2512               	.LBB178:
 2513               	.LM228:
 2514 0f9a 61E0      		ldi r22,lo8(1)
 2515 0f9c 70E0      		ldi r23,hi8(1)
 2516               	.L103:
 2517               	.LBE178:
 2518               	.LM229:
 2519 0f9e C401      		movw r24,r8
 2520 0fa0 042E      		mov r0,r20
 2521 0fa2 00C0      		rjmp 2f
 2522 0fa4 9595      	1:	asr r25
 2523 0fa6 8795      		ror r24
 2524 0fa8 0A94      	2:	dec r0
 2525 0faa 02F4      		brpl 1b
 2526 0fac 80FF      		sbrs r24,0
 2527 0fae 00C0      		rjmp .L100
 2528               	.LBB177:
 2529               	.LM230:
 2530 0fb0 EA81      		ldd r30,Y+2
 2531 0fb2 FB81      		ldd r31,Y+3
 2532 0fb4 2081      		ld r18,Z
 2533 0fb6 CB01      		movw r24,r22
 2534 0fb8 0E80      		ldd r0,Y+6
 2535 0fba 00C0      		rjmp 2f
 2536 0fbc 880F      	1:	lsl r24
 2537 0fbe 991F      		rol r25
 2538 0fc0 0A94      	2:	dec r0
 2539 0fc2 02F4      		brpl 1b
 2540 0fc4 282B      		or r18,r24
 2541 0fc6 2083      		st Z,r18
 2542               	.L101:
 2543               	.LBB187:
 2544               	.LBB188:
 2545               	.LM231:
 2546               	/* #APP */
 2547               	 ;  45 "i2csw.c" 1
 2548 0fc8 0000      		nop
 2549               	 ;  0 "" 2
 2550               	 ;  45 "i2csw.c" 1
 2551 0fca 0000      		nop
 2552               	 ;  0 "" 2
 2553               	 ;  45 "i2csw.c" 1
 2554 0fcc 0000      		nop
 2555               	 ;  0 "" 2
 2556               	 ;  45 "i2csw.c" 1
 2557 0fce 0000      		nop
 2558               	 ;  0 "" 2
 2559               	 ;  45 "i2csw.c" 1
 2560 0fd0 0000      		nop
 2561               	 ;  0 "" 2
 2562               	/* #NOAPP */
 2563               	.LBE188:
 2564               	.LBE187:
 2565               	.LM232:
 2566 0fd2 E985      		ldd r30,Y+9
 2567 0fd4 FA85      		ldd r31,Y+10
 2568 0fd6 2081      		ld r18,Z
 2569 0fd8 8D85      		ldd r24,Y+13
 2570 0fda DB01      		movw r26,r22
 2571 0fdc 00C0      		rjmp 2f
 2572 0fde AA0F      	1:	lsl r26
 2573 0fe0 BB1F      		rol r27
 2574 0fe2 8A95      	2:	dec r24
 2575 0fe4 02F4      		brpl 1b
 2576 0fe6 2A2B      		or r18,r26
 2577 0fe8 2083      		st Z,r18
 2578 0fea EF81      		ldd r30,Y+7
 2579 0fec F885      		ldd r31,Y+8
 2580 0fee 2081      		ld r18,Z
 2581 0ff0 8D85      		ldd r24,Y+13
 2582 0ff2 7B01      		movw r14,r22
 2583 0ff4 00C0      		rjmp 2f
 2584 0ff6 EE0C      	1:	lsl r14
 2585 0ff8 FF1C      		rol r15
 2586 0ffa 8A95      	2:	dec r24
 2587 0ffc 02F4      		brpl 1b
 2588 0ffe C701      		movw r24,r14
 2589 1000 8095      		com r24
 2590 1002 8223      		and r24,r18
 2591 1004 8083      		st Z,r24
 2592 1006 EB85      		ldd r30,Y+11
 2593 1008 FC85      		ldd r31,Y+12
 2594               	.L102:
 2595 100a 8081      		ld r24,Z
 2596 100c 2D85      		ldd r18,Y+13
 2597 100e 90E0      		ldi r25,lo8(0)
 2598 1010 00C0      		rjmp 2f
 2599 1012 9595      	1:	asr r25
 2600 1014 8795      		ror r24
 2601 1016 2A95      	2:	dec r18
 2602 1018 02F4      		brpl 1b
 2603 101a 80FF      		sbrs r24,0
 2604 101c 00C0      		rjmp .L102
 2605 101e EF81      		ldd r30,Y+7
 2606 1020 F885      		ldd r31,Y+8
 2607 1022 2081      		ld r18,Z
 2608 1024 8D85      		ldd r24,Y+13
 2609 1026 A1E0      		ldi r26,lo8(1)
 2610 1028 B0E0      		ldi r27,hi8(1)
 2611 102a 8B01      		movw r16,r22
 2612 102c 00C0      		rjmp 2f
 2613 102e 000F      	1:	lsl r16
 2614 1030 111F      		rol r17
 2615 1032 8A95      	2:	dec r24
 2616 1034 02F4      		brpl 1b
 2617 1036 202B      		or r18,r16
 2618 1038 2083      		st Z,r18
 2619               	.LBB185:
 2620               	.LBB186:
 2621               	.LM233:
 2622               	/* #APP */
 2623               	 ;  45 "i2csw.c" 1
 2624 103a 0000      		nop
 2625               	 ;  0 "" 2
 2626               	 ;  45 "i2csw.c" 1
 2627 103c 0000      		nop
 2628               	 ;  0 "" 2
 2629               	 ;  45 "i2csw.c" 1
 2630 103e 0000      		nop
 2631               	 ;  0 "" 2
 2632               	 ;  45 "i2csw.c" 1
 2633 1040 0000      		nop
 2634               	 ;  0 "" 2
 2635               	 ;  45 "i2csw.c" 1
 2636 1042 0000      		nop
 2637               	 ;  0 "" 2
 2638               	 ;  45 "i2csw.c" 1
 2639 1044 0000      		nop
 2640               	 ;  0 "" 2
 2641               	 ;  45 "i2csw.c" 1
 2642 1046 0000      		nop
 2643               	 ;  0 "" 2
 2644               	 ;  45 "i2csw.c" 1
 2645 1048 0000      		nop
 2646               	 ;  0 "" 2
 2647               	 ;  45 "i2csw.c" 1
 2648 104a 0000      		nop
 2649               	 ;  0 "" 2
 2650               	/* #NOAPP */
 2651               	.LBE186:
 2652               	.LBE185:
 2653               	.LM234:
 2654 104c E985      		ldd r30,Y+9
 2655 104e FA85      		ldd r31,Y+10
 2656 1050 2081      		ld r18,Z
 2657 1052 8D85      		ldd r24,Y+13
 2658 1054 7B01      		movw r14,r22
 2659 1056 00C0      		rjmp 2f
 2660 1058 EE0C      	1:	lsl r14
 2661 105a FF1C      		rol r15
 2662 105c 8A95      	2:	dec r24
 2663 105e 02F4      		brpl 1b
 2664 1060 C701      		movw r24,r14
 2665 1062 8095      		com r24
 2666 1064 8223      		and r24,r18
 2667 1066 8083      		st Z,r24
 2668 1068 4150      		subi r20,lo8(-(-1))
 2669 106a 5040      		sbci r21,hi8(-(-1))
 2670               	.LM235:
 2671 106c 0FEF      		ldi r16,hi8(-1)
 2672 106e 4F3F      		cpi r20,lo8(-1)
 2673 1070 5007      		cpc r21,r16
 2674 1072 01F0      		breq .+2
 2675 1074 00C0      		rjmp .L103
 2676               	.LM236:
 2677 1076 EA81      		ldd r30,Y+2
 2678 1078 FB81      		ldd r31,Y+3
 2679 107a 2081      		ld r18,Z
 2680 107c CD01      		movw r24,r26
 2681 107e 0E80      		ldd r0,Y+6
 2682 1080 00C0      		rjmp 2f
 2683 1082 880F      	1:	lsl r24
 2684 1084 991F      		rol r25
 2685 1086 0A94      	2:	dec r0
 2686 1088 02F4      		brpl 1b
 2687 108a 8095      		com r24
 2688 108c 8223      		and r24,r18
 2689 108e 8083      		st Z,r24
 2690               	.LM237:
 2691 1090 E881      		ld r30,Y
 2692 1092 F981      		ldd r31,Y+1
 2693 1094 2081      		ld r18,Z
 2694 1096 CD01      		movw r24,r26
 2695 1098 0E80      		ldd r0,Y+6
 2696 109a 00C0      		rjmp 2f
 2697 109c 880F      	1:	lsl r24
 2698 109e 991F      		rol r25
 2699 10a0 0A94      	2:	dec r0
 2700 10a2 02F4      		brpl 1b
 2701 10a4 8095      		com r24
 2702 10a6 8223      		and r24,r18
 2703 10a8 8083      		st Z,r24
 2704               	.LBB183:
 2705               	.LBB184:
 2706               	.LM238:
 2707               	/* #APP */
 2708               	 ;  45 "i2csw.c" 1
 2709 10aa 0000      		nop
 2710               	 ;  0 "" 2
 2711               	 ;  45 "i2csw.c" 1
 2712 10ac 0000      		nop
 2713               	 ;  0 "" 2
 2714               	 ;  45 "i2csw.c" 1
 2715 10ae 0000      		nop
 2716               	 ;  0 "" 2
 2717               	 ;  45 "i2csw.c" 1
 2718 10b0 0000      		nop
 2719               	 ;  0 "" 2
 2720               	 ;  45 "i2csw.c" 1
 2721 10b2 0000      		nop
 2722               	 ;  0 "" 2
 2723               	 ;  45 "i2csw.c" 1
 2724 10b4 0000      		nop
 2725               	 ;  0 "" 2
 2726               	 ;  45 "i2csw.c" 1
 2727 10b6 0000      		nop
 2728               	 ;  0 "" 2
 2729               	 ;  45 "i2csw.c" 1
 2730 10b8 0000      		nop
 2731               	 ;  0 "" 2
 2732               	/* #NOAPP */
 2733               	.LBE184:
 2734               	.LBE183:
 2735               	.LM239:
 2736 10ba E985      		ldd r30,Y+9
 2737 10bc FA85      		ldd r31,Y+10
 2738 10be 2081      		ld r18,Z
 2739 10c0 8D85      		ldd r24,Y+13
 2740 10c2 AD01      		movw r20,r26
 2741 10c4 00C0      		rjmp 2f
 2742 10c6 440F      	1:	lsl r20
 2743 10c8 551F      		rol r21
 2744 10ca 8A95      	2:	dec r24
 2745 10cc 02F4      		brpl 1b
 2746 10ce 242B      		or r18,r20
 2747 10d0 2083      		st Z,r18
 2748 10d2 EF81      		ldd r30,Y+7
 2749 10d4 F885      		ldd r31,Y+8
 2750 10d6 9081      		ld r25,Z
 2751 10d8 8D85      		ldd r24,Y+13
 2752 10da 00C0      		rjmp 2f
 2753 10dc AA0F      	1:	lsl r26
 2754 10de BB1F      		rol r27
 2755 10e0 8A95      	2:	dec r24
 2756 10e2 02F4      		brpl 1b
 2757 10e4 8A2F      		mov r24,r26
 2758 10e6 8095      		com r24
 2759 10e8 8923      		and r24,r25
 2760 10ea 8083      		st Z,r24
 2761 10ec EB85      		ldd r30,Y+11
 2762 10ee FC85      		ldd r31,Y+12
 2763               	.L104:
 2764 10f0 8081      		ld r24,Z
 2765 10f2 2D85      		ldd r18,Y+13
 2766 10f4 90E0      		ldi r25,lo8(0)
 2767 10f6 00C0      		rjmp 2f
 2768 10f8 9595      	1:	asr r25
 2769 10fa 8795      		ror r24
 2770 10fc 2A95      	2:	dec r18
 2771 10fe 02F4      		brpl 1b
 2772 1100 80FF      		sbrs r24,0
 2773 1102 00C0      		rjmp .L104
 2774 1104 EF81      		ldd r30,Y+7
 2775 1106 F885      		ldd r31,Y+8
 2776 1108 2081      		ld r18,Z
 2777 110a 8D85      		ldd r24,Y+13
 2778 110c 61E0      		ldi r22,lo8(1)
 2779 110e 70E0      		ldi r23,hi8(1)
 2780 1110 DB01      		movw r26,r22
 2781 1112 00C0      		rjmp 2f
 2782 1114 AA0F      	1:	lsl r26
 2783 1116 BB1F      		rol r27
 2784 1118 8A95      	2:	dec r24
 2785 111a 02F4      		brpl 1b
 2786 111c 2A2B      		or r18,r26
 2787 111e 2083      		st Z,r18
 2788               	.LM240:
 2789 1120 EC81      		ldd r30,Y+4
 2790 1122 FD81      		ldd r31,Y+5
 2791 1124 3081      		ld r19,Z
 2792 1126 4E81      		ldd r20,Y+6
 2793               	.LBB181:
 2794               	.LBB182:
 2795               	.LM241:
 2796               	/* #APP */
 2797               	 ;  45 "i2csw.c" 1
 2798 1128 0000      		nop
 2799               	 ;  0 "" 2
 2800               	 ;  45 "i2csw.c" 1
 2801 112a 0000      		nop
 2802               	 ;  0 "" 2
 2803               	 ;  45 "i2csw.c" 1
 2804 112c 0000      		nop
 2805               	 ;  0 "" 2
 2806               	 ;  45 "i2csw.c" 1
 2807 112e 0000      		nop
 2808               	 ;  0 "" 2
 2809               	 ;  45 "i2csw.c" 1
 2810 1130 0000      		nop
 2811               	 ;  0 "" 2
 2812               	 ;  45 "i2csw.c" 1
 2813 1132 0000      		nop
 2814               	 ;  0 "" 2
 2815               	 ;  45 "i2csw.c" 1
 2816 1134 0000      		nop
 2817               	 ;  0 "" 2
 2818               	 ;  45 "i2csw.c" 1
 2819 1136 0000      		nop
 2820               	 ;  0 "" 2
 2821               	 ;  45 "i2csw.c" 1
 2822 1138 0000      		nop
 2823               	 ;  0 "" 2
 2824               	/* #NOAPP */
 2825               	.LBE182:
 2826               	.LBE181:
 2827               	.LM242:
 2828 113a E985      		ldd r30,Y+9
 2829 113c FA85      		ldd r31,Y+10
 2830 113e 2081      		ld r18,Z
 2831 1140 8D85      		ldd r24,Y+13
 2832 1142 7B01      		movw r14,r22
 2833 1144 00C0      		rjmp 2f
 2834 1146 EE0C      	1:	lsl r14
 2835 1148 FF1C      		rol r15
 2836 114a 8A95      	2:	dec r24
 2837 114c 02F4      		brpl 1b
 2838 114e C701      		movw r24,r14
 2839 1150 8095      		com r24
 2840 1152 8223      		and r24,r18
 2841 1154 8083      		st Z,r24
 2842               	.LM243:
 2843 1156 E881      		ld r30,Y
 2844 1158 F981      		ldd r31,Y+1
 2845 115a 2081      		ld r18,Z
 2846 115c CB01      		movw r24,r22
 2847 115e 0E80      		ldd r0,Y+6
 2848 1160 00C0      		rjmp 2f
 2849 1162 880F      	1:	lsl r24
 2850 1164 991F      		rol r25
 2851 1166 0A94      	2:	dec r0
 2852 1168 02F4      		brpl 1b
 2853 116a 282B      		or r18,r24
 2854 116c 2083      		st Z,r18
 2855               	.LBB179:
 2856               	.LBB180:
 2857               	.LM244:
 2858               	/* #APP */
 2859               	 ;  45 "i2csw.c" 1
 2860 116e 0000      		nop
 2861               	 ;  0 "" 2
 2862               	 ;  45 "i2csw.c" 1
 2863 1170 0000      		nop
 2864               	 ;  0 "" 2
 2865               	 ;  45 "i2csw.c" 1
 2866 1172 0000      		nop
 2867               	 ;  0 "" 2
 2868               	 ;  45 "i2csw.c" 1
 2869 1174 0000      		nop
 2870               	 ;  0 "" 2
 2871               	 ;  45 "i2csw.c" 1
 2872 1176 0000      		nop
 2873               	 ;  0 "" 2
 2874               	/* #NOAPP */
 2875               	.LBE180:
 2876               	.LBE179:
 2877               	.LBE177:
 2878               	.LBE176:
 2879               	.LM245:
 2880 1178 8B01      		movw r16,r22
 2881 117a 00C0      		rjmp 2f
 2882 117c 000F      	1:	lsl r16
 2883 117e 111F      		rol r17
 2884 1180 4A95      	2:	dec r20
 2885 1182 02F4      		brpl 1b
 2886 1184 3023      		and r19,r16
 2887 1186 01F4      		brne .+2
 2888 1188 00C0      		rjmp .L105
 2889               	.LM246:
 2890 118a EA81      		ldd r30,Y+2
 2891 118c FB81      		ldd r31,Y+3
 2892 118e 2081      		ld r18,Z
 2893 1190 CB01      		movw r24,r22
 2894 1192 0E80      		ldd r0,Y+6
 2895 1194 00C0      		rjmp 2f
 2896 1196 880F      	1:	lsl r24
 2897 1198 991F      		rol r25
 2898 119a 0A94      	2:	dec r0
 2899 119c 02F4      		brpl 1b
 2900 119e 8095      		com r24
 2901 11a0 8223      		and r24,r18
 2902 11a2 8083      		st Z,r24
 2903               	.LBB190:
 2904               	.LBB191:
 2905               	.LM247:
 2906               	/* #APP */
 2907               	 ;  45 "i2csw.c" 1
 2908 11a4 0000      		nop
 2909               	 ;  0 "" 2
 2910               	 ;  45 "i2csw.c" 1
 2911 11a6 0000      		nop
 2912               	 ;  0 "" 2
 2913               	 ;  45 "i2csw.c" 1
 2914 11a8 0000      		nop
 2915               	 ;  0 "" 2
 2916               	 ;  45 "i2csw.c" 1
 2917 11aa 0000      		nop
 2918               	 ;  0 "" 2
 2919               	 ;  45 "i2csw.c" 1
 2920 11ac 0000      		nop
 2921               	 ;  0 "" 2
 2922               	 ;  45 "i2csw.c" 1
 2923 11ae 0000      		nop
 2924               	 ;  0 "" 2
 2925               	 ;  45 "i2csw.c" 1
 2926 11b0 0000      		nop
 2927               	 ;  0 "" 2
 2928               	 ;  45 "i2csw.c" 1
 2929 11b2 0000      		nop
 2930               	 ;  0 "" 2
 2931               	 ;  45 "i2csw.c" 1
 2932 11b4 0000      		nop
 2933               	 ;  0 "" 2
 2934               	/* #NOAPP */
 2935               	.LBE191:
 2936               	.LBE190:
 2937               	.LM248:
 2938 11b6 E985      		ldd r30,Y+9
 2939 11b8 FA85      		ldd r31,Y+10
 2940 11ba 2081      		ld r18,Z
 2941 11bc 8D85      		ldd r24,Y+13
 2942 11be AB01      		movw r20,r22
 2943 11c0 00C0      		rjmp 2f
 2944 11c2 440F      	1:	lsl r20
 2945 11c4 551F      		rol r21
 2946 11c6 8A95      	2:	dec r24
 2947 11c8 02F4      		brpl 1b
 2948 11ca 242B      		or r18,r20
 2949 11cc 2083      		st Z,r18
 2950 11ce EF81      		ldd r30,Y+7
 2951 11d0 F885      		ldd r31,Y+8
 2952 11d2 9081      		ld r25,Z
 2953 11d4 8D85      		ldd r24,Y+13
 2954 11d6 00C0      		rjmp 2f
 2955 11d8 660F      	1:	lsl r22
 2956 11da 771F      		rol r23
 2957 11dc 8A95      	2:	dec r24
 2958 11de 02F4      		brpl 1b
 2959 11e0 862F      		mov r24,r22
 2960 11e2 8095      		com r24
 2961 11e4 8923      		and r24,r25
 2962 11e6 8083      		st Z,r24
 2963 11e8 EB85      		ldd r30,Y+11
 2964 11ea FC85      		ldd r31,Y+12
 2965               	.L106:
 2966 11ec 8081      		ld r24,Z
 2967 11ee 2D85      		ldd r18,Y+13
 2968 11f0 90E0      		ldi r25,lo8(0)
 2969 11f2 00C0      		rjmp 2f
 2970 11f4 9595      	1:	asr r25
 2971 11f6 8795      		ror r24
 2972 11f8 2A95      	2:	dec r18
 2973 11fa 02F4      		brpl 1b
 2974 11fc 80FF      		sbrs r24,0
 2975 11fe 00C0      		rjmp .L106
 2976 1200 EF81      		ldd r30,Y+7
 2977 1202 F885      		ldd r31,Y+8
 2978 1204 2081      		ld r18,Z
 2979 1206 8D85      		ldd r24,Y+13
 2980 1208 41E0      		ldi r20,lo8(1)
 2981 120a 50E0      		ldi r21,hi8(1)
 2982 120c BA01      		movw r22,r20
 2983 120e 00C0      		rjmp 2f
 2984 1210 660F      	1:	lsl r22
 2985 1212 771F      		rol r23
 2986 1214 8A95      	2:	dec r24
 2987 1216 02F4      		brpl 1b
 2988 1218 262B      		or r18,r22
 2989 121a 2083      		st Z,r18
 2990               	.LBB192:
 2991               	.LBB193:
 2992               	.LM249:
 2993               	/* #APP */
 2994               	 ;  45 "i2csw.c" 1
 2995 121c 0000      		nop
 2996               	 ;  0 "" 2
 2997               	 ;  45 "i2csw.c" 1
 2998 121e 0000      		nop
 2999               	 ;  0 "" 2
 3000               	 ;  45 "i2csw.c" 1
 3001 1220 0000      		nop
 3002               	 ;  0 "" 2
 3003               	 ;  45 "i2csw.c" 1
 3004 1222 0000      		nop
 3005               	 ;  0 "" 2
 3006               	 ;  45 "i2csw.c" 1
 3007 1224 0000      		nop
 3008               	 ;  0 "" 2
 3009               	/* #NOAPP */
 3010               	.LBE193:
 3011               	.LBE192:
 3012               	.LM250:
 3013 1226 EA81      		ldd r30,Y+2
 3014 1228 FB81      		ldd r31,Y+3
 3015 122a 8081      		ld r24,Z
 3016 122c 0E80      		ldd r0,Y+6
 3017 122e 00C0      		rjmp 2f
 3018 1230 440F      	1:	lsl r20
 3019 1232 551F      		rol r21
 3020 1234 0A94      	2:	dec r0
 3021 1236 02F4      		brpl 1b
 3022 1238 842B      		or r24,r20
 3023 123a 8083      		st Z,r24
 3024               	.LM251:
 3025 123c 00D0      		rcall .
 3026 123e 00D0      		rcall .
 3027 1240 80E0      		ldi r24,lo8(.LC3)
 3028 1242 90E0      		ldi r25,hi8(.LC3)
 3029 1244 ADB7      		in r26,__SP_L__
 3030 1246 BEB7      		in r27,__SP_H__
 3031 1248 1296      		adiw r26,1+1
 3032 124a 9C93      		st X,r25
 3033 124c 8E93      		st -X,r24
 3034 124e 1197      		sbiw r26,1
 3035 1250 1496      		adiw r26,3+1
 3036 1252 9C92      		st X,r9
 3037 1254 8E92      		st -X,r8
 3038 1256 1397      		sbiw r26,3
 3039 1258 0E94 0000 		call printf
 3040 125c FF24      		clr r15
 3041               	.LVL28:
 3042 125e 0F90      		pop __tmp_reg__
 3043 1260 0F90      		pop __tmp_reg__
 3044 1262 0F90      		pop __tmp_reg__
 3045 1264 0F90      		pop __tmp_reg__
 3046               	.L107:
 3047               	.LM252:
 3048 1266 8F2D      		mov r24,r15
 3049               	/* epilogue start */
 3050 1268 DF91      		pop r29
 3051 126a CF91      		pop r28
 3052               	.LVL29:
 3053 126c 1F91      		pop r17
 3054 126e 0F91      		pop r16
 3055 1270 FF90      		pop r15
 3056               	.LVL30:
 3057 1272 EF90      		pop r14
 3058 1274 DF90      		pop r13
 3059 1276 CF90      		pop r12
 3060               	.LVL31:
 3061 1278 BF90      		pop r11
 3062 127a AF90      		pop r10
 3063               	.LVL32:
 3064 127c 9F90      		pop r9
 3065 127e 8F90      		pop r8
 3066 1280 0895      		ret
 3067               	.LVL33:
 3068               	.L100:
 3069               	.LBB194:
 3070               	.LBB189:
 3071               	.LM253:
 3072 1282 EA81      		ldd r30,Y+2
 3073 1284 FB81      		ldd r31,Y+3
 3074 1286 2081      		ld r18,Z
 3075 1288 CB01      		movw r24,r22
 3076 128a 0E80      		ldd r0,Y+6
 3077 128c 00C0      		rjmp 2f
 3078 128e 880F      	1:	lsl r24
 3079 1290 991F      		rol r25
 3080 1292 0A94      	2:	dec r0
 3081 1294 02F4      		brpl 1b
 3082 1296 8095      		com r24
 3083 1298 8223      		and r24,r18
 3084 129a 8083      		st Z,r24
 3085 129c 00C0      		rjmp .L101
 3086               	.L105:
 3087               	.LBE189:
 3088               	.LBE194:
 3089               	.LM254:
 3090 129e FF24      		clr r15
 3091 12a0 F394      		inc r15
 3092               	.LVL34:
 3093               	.LBB195:
 3094               	.LBB197:
 3095               	.LM255:
 3096 12a2 61E0      		ldi r22,lo8(1)
 3097 12a4 70E0      		ldi r23,hi8(1)
 3098 12a6 01E0      		ldi r16,lo8(1)
 3099 12a8 10E0      		ldi r17,hi8(1)
 3100               	.LBE197:
 3101               	.LBE195:
 3102               	.LM256:
 3103 12aa CC20      		tst r12
 3104 12ac 01F4      		brne .+2
 3105 12ae 00C0      		rjmp .L131
 3106               	.L117:
 3107               	.LM257:
 3108 12b0 F501      		movw r30,r10
 3109 12b2 8081      		ld r24,Z
 3110 12b4 A82F      		mov r26,r24
 3111 12b6 B0E0      		ldi r27,lo8(0)
 3112 12b8 47E0      		ldi r20,lo8(7)
 3113 12ba 50E0      		ldi r21,hi8(7)
 3114               	.L111:
 3115               	.LBB209:
 3116               	.LM258:
 3117 12bc CD01      		movw r24,r26
 3118 12be 042E      		mov r0,r20
 3119 12c0 00C0      		rjmp 2f
 3120 12c2 9595      	1:	asr r25
 3121 12c4 8795      		ror r24
 3122 12c6 0A94      	2:	dec r0
 3123 12c8 02F4      		brpl 1b
 3124 12ca 80FF      		sbrs r24,0
 3125 12cc 00C0      		rjmp .L108
 3126               	.LBB196:
 3127               	.LM259:
 3128 12ce EA81      		ldd r30,Y+2
 3129 12d0 FB81      		ldd r31,Y+3
 3130 12d2 2081      		ld r18,Z
 3131 12d4 CB01      		movw r24,r22
 3132 12d6 0E80      		ldd r0,Y+6
 3133 12d8 00C0      		rjmp 2f
 3134 12da 880F      	1:	lsl r24
 3135 12dc 991F      		rol r25
 3136 12de 0A94      	2:	dec r0
 3137 12e0 02F4      		brpl 1b
 3138 12e2 282B      		or r18,r24
 3139 12e4 2083      		st Z,r18
 3140               	.L109:
 3141               	.LBB206:
 3142               	.LBB207:
 3143               	.LM260:
 3144               	/* #APP */
 3145               	 ;  45 "i2csw.c" 1
 3146 12e6 0000      		nop
 3147               	 ;  0 "" 2
 3148               	 ;  45 "i2csw.c" 1
 3149 12e8 0000      		nop
 3150               	 ;  0 "" 2
 3151               	 ;  45 "i2csw.c" 1
 3152 12ea 0000      		nop
 3153               	 ;  0 "" 2
 3154               	 ;  45 "i2csw.c" 1
 3155 12ec 0000      		nop
 3156               	 ;  0 "" 2
 3157               	 ;  45 "i2csw.c" 1
 3158 12ee 0000      		nop
 3159               	 ;  0 "" 2
 3160               	/* #NOAPP */
 3161               	.LBE207:
 3162               	.LBE206:
 3163               	.LM261:
 3164 12f0 E985      		ldd r30,Y+9
 3165 12f2 FA85      		ldd r31,Y+10
 3166 12f4 2081      		ld r18,Z
 3167 12f6 8D85      		ldd r24,Y+13
 3168 12f8 7B01      		movw r14,r22
 3169 12fa 00C0      		rjmp 2f
 3170 12fc EE0C      	1:	lsl r14
 3171 12fe FF1C      		rol r15
 3172 1300 8A95      	2:	dec r24
 3173 1302 02F4      		brpl 1b
 3174 1304 2E29      		or r18,r14
 3175 1306 2083      		st Z,r18
 3176 1308 EF81      		ldd r30,Y+7
 3177 130a F885      		ldd r31,Y+8
 3178 130c 2081      		ld r18,Z
 3179 130e 8D85      		ldd r24,Y+13
 3180 1310 7B01      		movw r14,r22
 3181 1312 00C0      		rjmp 2f
 3182 1314 EE0C      	1:	lsl r14
 3183 1316 FF1C      		rol r15
 3184 1318 8A95      	2:	dec r24
 3185 131a 02F4      		brpl 1b
 3186 131c C701      		movw r24,r14
 3187 131e 8095      		com r24
 3188 1320 8223      		and r24,r18
 3189 1322 8083      		st Z,r24
 3190 1324 EB85      		ldd r30,Y+11
 3191 1326 FC85      		ldd r31,Y+12
 3192               	.L110:
 3193 1328 8081      		ld r24,Z
 3194 132a 2D85      		ldd r18,Y+13
 3195 132c 90E0      		ldi r25,lo8(0)
 3196 132e 00C0      		rjmp 2f
 3197 1330 9595      	1:	asr r25
 3198 1332 8795      		ror r24
 3199 1334 2A95      	2:	dec r18
 3200 1336 02F4      		brpl 1b
 3201 1338 80FF      		sbrs r24,0
 3202 133a 00C0      		rjmp .L110
 3203 133c EF81      		ldd r30,Y+7
 3204 133e F885      		ldd r31,Y+8
 3205 1340 2081      		ld r18,Z
 3206 1342 8D85      		ldd r24,Y+13
 3207 1344 7B01      		movw r14,r22
 3208 1346 00C0      		rjmp 2f
 3209 1348 EE0C      	1:	lsl r14
 3210 134a FF1C      		rol r15
 3211 134c 8A95      	2:	dec r24
 3212 134e 02F4      		brpl 1b
 3213 1350 2E29      		or r18,r14
 3214 1352 2083      		st Z,r18
 3215               	.LBB204:
 3216               	.LBB205:
 3217               	.LM262:
 3218               	/* #APP */
 3219               	 ;  45 "i2csw.c" 1
 3220 1354 0000      		nop
 3221               	 ;  0 "" 2
 3222               	 ;  45 "i2csw.c" 1
 3223 1356 0000      		nop
 3224               	 ;  0 "" 2
 3225               	 ;  45 "i2csw.c" 1
 3226 1358 0000      		nop
 3227               	 ;  0 "" 2
 3228               	 ;  45 "i2csw.c" 1
 3229 135a 0000      		nop
 3230               	 ;  0 "" 2
 3231               	 ;  45 "i2csw.c" 1
 3232 135c 0000      		nop
 3233               	 ;  0 "" 2
 3234               	 ;  45 "i2csw.c" 1
 3235 135e 0000      		nop
 3236               	 ;  0 "" 2
 3237               	 ;  45 "i2csw.c" 1
 3238 1360 0000      		nop
 3239               	 ;  0 "" 2
 3240               	 ;  45 "i2csw.c" 1
 3241 1362 0000      		nop
 3242               	 ;  0 "" 2
 3243               	 ;  45 "i2csw.c" 1
 3244 1364 0000      		nop
 3245               	 ;  0 "" 2
 3246               	/* #NOAPP */
 3247               	.LBE205:
 3248               	.LBE204:
 3249               	.LM263:
 3250 1366 E985      		ldd r30,Y+9
 3251 1368 FA85      		ldd r31,Y+10
 3252 136a 2081      		ld r18,Z
 3253 136c 8D85      		ldd r24,Y+13
 3254 136e 7B01      		movw r14,r22
 3255 1370 00C0      		rjmp 2f
 3256 1372 EE0C      	1:	lsl r14
 3257 1374 FF1C      		rol r15
 3258 1376 8A95      	2:	dec r24
 3259 1378 02F4      		brpl 1b
 3260 137a C701      		movw r24,r14
 3261 137c 8095      		com r24
 3262 137e 8223      		and r24,r18
 3263 1380 8083      		st Z,r24
 3264 1382 4150      		subi r20,lo8(-(-1))
 3265 1384 5040      		sbci r21,hi8(-(-1))
 3266               	.LM264:
 3267 1386 8FEF      		ldi r24,hi8(-1)
 3268 1388 4F3F      		cpi r20,lo8(-1)
 3269 138a 5807      		cpc r21,r24
 3270 138c 01F0      		breq .+2
 3271 138e 00C0      		rjmp .L111
 3272               	.LM265:
 3273 1390 EA81      		ldd r30,Y+2
 3274 1392 FB81      		ldd r31,Y+3
 3275 1394 2081      		ld r18,Z
 3276 1396 C801      		movw r24,r16
 3277 1398 0E80      		ldd r0,Y+6
 3278 139a 00C0      		rjmp 2f
 3279 139c 880F      	1:	lsl r24
 3280 139e 991F      		rol r25
 3281 13a0 0A94      	2:	dec r0
 3282 13a2 02F4      		brpl 1b
 3283 13a4 8095      		com r24
 3284 13a6 8223      		and r24,r18
 3285 13a8 8083      		st Z,r24
 3286               	.LM266:
 3287 13aa E881      		ld r30,Y
 3288 13ac F981      		ldd r31,Y+1
 3289 13ae 2081      		ld r18,Z
 3290 13b0 C801      		movw r24,r16
 3291 13b2 0E80      		ldd r0,Y+6
 3292 13b4 00C0      		rjmp 2f
 3293 13b6 880F      	1:	lsl r24
 3294 13b8 991F      		rol r25
 3295 13ba 0A94      	2:	dec r0
 3296 13bc 02F4      		brpl 1b
 3297 13be 8095      		com r24
 3298 13c0 8223      		and r24,r18
 3299 13c2 8083      		st Z,r24
 3300               	.LBB202:
 3301               	.LBB203:
 3302               	.LM267:
 3303               	/* #APP */
 3304               	 ;  45 "i2csw.c" 1
 3305 13c4 0000      		nop
 3306               	 ;  0 "" 2
 3307               	 ;  45 "i2csw.c" 1
 3308 13c6 0000      		nop
 3309               	 ;  0 "" 2
 3310               	 ;  45 "i2csw.c" 1
 3311 13c8 0000      		nop
 3312               	 ;  0 "" 2
 3313               	 ;  45 "i2csw.c" 1
 3314 13ca 0000      		nop
 3315               	 ;  0 "" 2
 3316               	 ;  45 "i2csw.c" 1
 3317 13cc 0000      		nop
 3318               	 ;  0 "" 2
 3319               	 ;  45 "i2csw.c" 1
 3320 13ce 0000      		nop
 3321               	 ;  0 "" 2
 3322               	 ;  45 "i2csw.c" 1
 3323 13d0 0000      		nop
 3324               	 ;  0 "" 2
 3325               	 ;  45 "i2csw.c" 1
 3326 13d2 0000      		nop
 3327               	 ;  0 "" 2
 3328               	/* #NOAPP */
 3329               	.LBE203:
 3330               	.LBE202:
 3331               	.LM268:
 3332 13d4 E985      		ldd r30,Y+9
 3333 13d6 FA85      		ldd r31,Y+10
 3334 13d8 2081      		ld r18,Z
 3335 13da 8D85      		ldd r24,Y+13
 3336 13dc D801      		movw r26,r16
 3337 13de 00C0      		rjmp 2f
 3338 13e0 AA0F      	1:	lsl r26
 3339 13e2 BB1F      		rol r27
 3340 13e4 8A95      	2:	dec r24
 3341 13e6 02F4      		brpl 1b
 3342 13e8 2A2B      		or r18,r26
 3343 13ea 2083      		st Z,r18
 3344 13ec EF81      		ldd r30,Y+7
 3345 13ee F885      		ldd r31,Y+8
 3346 13f0 2081      		ld r18,Z
 3347 13f2 8D85      		ldd r24,Y+13
 3348 13f4 7801      		movw r14,r16
 3349 13f6 00C0      		rjmp 2f
 3350 13f8 EE0C      	1:	lsl r14
 3351 13fa FF1C      		rol r15
 3352 13fc 8A95      	2:	dec r24
 3353 13fe 02F4      		brpl 1b
 3354 1400 C701      		movw r24,r14
 3355 1402 8095      		com r24
 3356 1404 8223      		and r24,r18
 3357 1406 8083      		st Z,r24
 3358 1408 EB85      		ldd r30,Y+11
 3359 140a FC85      		ldd r31,Y+12
 3360               	.L112:
 3361 140c 8081      		ld r24,Z
 3362 140e 2D85      		ldd r18,Y+13
 3363 1410 90E0      		ldi r25,lo8(0)
 3364 1412 00C0      		rjmp 2f
 3365 1414 9595      	1:	asr r25
 3366 1416 8795      		ror r24
 3367 1418 2A95      	2:	dec r18
 3368 141a 02F4      		brpl 1b
 3369 141c 80FF      		sbrs r24,0
 3370 141e 00C0      		rjmp .L112
 3371 1420 EF81      		ldd r30,Y+7
 3372 1422 F885      		ldd r31,Y+8
 3373 1424 2081      		ld r18,Z
 3374 1426 8D85      		ldd r24,Y+13
 3375 1428 AB01      		movw r20,r22
 3376 142a 00C0      		rjmp 2f
 3377 142c 440F      	1:	lsl r20
 3378 142e 551F      		rol r21
 3379 1430 8A95      	2:	dec r24
 3380 1432 02F4      		brpl 1b
 3381 1434 242B      		or r18,r20
 3382 1436 2083      		st Z,r18
 3383               	.LM269:
 3384 1438 EC81      		ldd r30,Y+4
 3385 143a FD81      		ldd r31,Y+5
 3386 143c 3081      		ld r19,Z
 3387 143e 4E81      		ldd r20,Y+6
 3388               	.LBB200:
 3389               	.LBB201:
 3390               	.LM270:
 3391               	/* #APP */
 3392               	 ;  45 "i2csw.c" 1
 3393 1440 0000      		nop
 3394               	 ;  0 "" 2
 3395               	 ;  45 "i2csw.c" 1
 3396 1442 0000      		nop
 3397               	 ;  0 "" 2
 3398               	 ;  45 "i2csw.c" 1
 3399 1444 0000      		nop
 3400               	 ;  0 "" 2
 3401               	 ;  45 "i2csw.c" 1
 3402 1446 0000      		nop
 3403               	 ;  0 "" 2
 3404               	 ;  45 "i2csw.c" 1
 3405 1448 0000      		nop
 3406               	 ;  0 "" 2
 3407               	 ;  45 "i2csw.c" 1
 3408 144a 0000      		nop
 3409               	 ;  0 "" 2
 3410               	 ;  45 "i2csw.c" 1
 3411 144c 0000      		nop
 3412               	 ;  0 "" 2
 3413               	 ;  45 "i2csw.c" 1
 3414 144e 0000      		nop
 3415               	 ;  0 "" 2
 3416               	 ;  45 "i2csw.c" 1
 3417 1450 0000      		nop
 3418               	 ;  0 "" 2
 3419               	/* #NOAPP */
 3420               	.LBE201:
 3421               	.LBE200:
 3422               	.LM271:
 3423 1452 E985      		ldd r30,Y+9
 3424 1454 FA85      		ldd r31,Y+10
 3425 1456 2081      		ld r18,Z
 3426 1458 8D85      		ldd r24,Y+13
 3427 145a DB01      		movw r26,r22
 3428 145c 00C0      		rjmp 2f
 3429 145e AA0F      	1:	lsl r26
 3430 1460 BB1F      		rol r27
 3431 1462 8A95      	2:	dec r24
 3432 1464 02F4      		brpl 1b
 3433 1466 CD01      		movw r24,r26
 3434 1468 8095      		com r24
 3435 146a 8223      		and r24,r18
 3436 146c 8083      		st Z,r24
 3437               	.LM272:
 3438 146e E881      		ld r30,Y
 3439 1470 F981      		ldd r31,Y+1
 3440 1472 2081      		ld r18,Z
 3441 1474 CB01      		movw r24,r22
 3442 1476 0E80      		ldd r0,Y+6
 3443 1478 00C0      		rjmp 2f
 3444 147a 880F      	1:	lsl r24
 3445 147c 991F      		rol r25
 3446 147e 0A94      	2:	dec r0
 3447 1480 02F4      		brpl 1b
 3448 1482 282B      		or r18,r24
 3449 1484 2083      		st Z,r18
 3450               	.LBB198:
 3451               	.LBB199:
 3452               	.LM273:
 3453               	/* #APP */
 3454               	 ;  45 "i2csw.c" 1
 3455 1486 0000      		nop
 3456               	 ;  0 "" 2
 3457               	 ;  45 "i2csw.c" 1
 3458 1488 0000      		nop
 3459               	 ;  0 "" 2
 3460               	 ;  45 "i2csw.c" 1
 3461 148a 0000      		nop
 3462               	 ;  0 "" 2
 3463               	 ;  45 "i2csw.c" 1
 3464 148c 0000      		nop
 3465               	 ;  0 "" 2
 3466               	 ;  45 "i2csw.c" 1
 3467 148e 0000      		nop
 3468               	 ;  0 "" 2
 3469               	/* #NOAPP */
 3470               	.LBE199:
 3471               	.LBE198:
 3472               	.LM274:
 3473 1490 FF24      		clr r15
 3474 1492 FB01      		movw r30,r22
 3475 1494 00C0      		rjmp 2f
 3476 1496 EE0F      	1:	lsl r30
 3477 1498 FF1F      		rol r31
 3478 149a 4A95      	2:	dec r20
 3479 149c 02F4      		brpl 1b
 3480 149e 3E23      		and r19,r30
 3481 14a0 01F4      		brne .L113
 3482 14a2 FF24      		clr r15
 3483 14a4 F394      		inc r15
 3484               	.L113:
 3485 14a6 CA94      		dec r12
 3486               	.LBE196:
 3487               	.LBE209:
 3488               	.LM275:
 3489 14a8 FF20      		tst r15
 3490 14aa 01F4      		brne .+2
 3491 14ac 00C0      		rjmp .L114
 3492               	.LM276:
 3493 14ae 0894      		sec
 3494 14b0 A11C      		adc r10,__zero_reg__
 3495 14b2 B11C      		adc r11,__zero_reg__
 3496               	.LM277:
 3497 14b4 CC20      		tst r12
 3498 14b6 01F0      		breq .+2
 3499 14b8 00C0      		rjmp .L117
 3500               	.L131:
 3501               	.LM278:
 3502 14ba EA81      		ldd r30,Y+2
 3503 14bc FB81      		ldd r31,Y+3
 3504 14be 4081      		ld r20,Z
 3505 14c0 21E0      		ldi r18,lo8(1)
 3506 14c2 30E0      		ldi r19,hi8(1)
 3507 14c4 C901      		movw r24,r18
 3508 14c6 0E80      		ldd r0,Y+6
 3509 14c8 00C0      		rjmp 2f
 3510 14ca 880F      	1:	lsl r24
 3511 14cc 991F      		rol r25
 3512 14ce 0A94      	2:	dec r0
 3513 14d0 02F4      		brpl 1b
 3514 14d2 8095      		com r24
 3515 14d4 8423      		and r24,r20
 3516 14d6 8083      		st Z,r24
 3517               	.LBB210:
 3518               	.LBB211:
 3519               	.LM279:
 3520               	/* #APP */
 3521               	 ;  45 "i2csw.c" 1
 3522 14d8 0000      		nop
 3523               	 ;  0 "" 2
 3524               	 ;  45 "i2csw.c" 1
 3525 14da 0000      		nop
 3526               	 ;  0 "" 2
 3527               	 ;  45 "i2csw.c" 1
 3528 14dc 0000      		nop
 3529               	 ;  0 "" 2
 3530               	 ;  45 "i2csw.c" 1
 3531 14de 0000      		nop
 3532               	 ;  0 "" 2
 3533               	 ;  45 "i2csw.c" 1
 3534 14e0 0000      		nop
 3535               	 ;  0 "" 2
 3536               	 ;  45 "i2csw.c" 1
 3537 14e2 0000      		nop
 3538               	 ;  0 "" 2
 3539               	 ;  45 "i2csw.c" 1
 3540 14e4 0000      		nop
 3541               	 ;  0 "" 2
 3542               	 ;  45 "i2csw.c" 1
 3543 14e6 0000      		nop
 3544               	 ;  0 "" 2
 3545               	 ;  45 "i2csw.c" 1
 3546 14e8 0000      		nop
 3547               	 ;  0 "" 2
 3548               	/* #NOAPP */
 3549               	.LBE211:
 3550               	.LBE210:
 3551               	.LM280:
 3552 14ea E985      		ldd r30,Y+9
 3553 14ec FA85      		ldd r31,Y+10
 3554 14ee 4081      		ld r20,Z
 3555 14f0 8D85      		ldd r24,Y+13
 3556 14f2 8901      		movw r16,r18
 3557 14f4 00C0      		rjmp 2f
 3558 14f6 000F      	1:	lsl r16
 3559 14f8 111F      		rol r17
 3560 14fa 8A95      	2:	dec r24
 3561 14fc 02F4      		brpl 1b
 3562 14fe 402B      		or r20,r16
 3563 1500 4083      		st Z,r20
 3564 1502 EF81      		ldd r30,Y+7
 3565 1504 F885      		ldd r31,Y+8
 3566 1506 9081      		ld r25,Z
 3567 1508 8D85      		ldd r24,Y+13
 3568 150a 00C0      		rjmp 2f
 3569 150c 220F      	1:	lsl r18
 3570 150e 331F      		rol r19
 3571 1510 8A95      	2:	dec r24
 3572 1512 02F4      		brpl 1b
 3573 1514 2095      		com r18
 3574 1516 2923      		and r18,r25
 3575 1518 2083      		st Z,r18
 3576 151a EB85      		ldd r30,Y+11
 3577 151c FC85      		ldd r31,Y+12
 3578               	.L118:
 3579 151e 8081      		ld r24,Z
 3580 1520 2D85      		ldd r18,Y+13
 3581 1522 90E0      		ldi r25,lo8(0)
 3582 1524 00C0      		rjmp 2f
 3583 1526 9595      	1:	asr r25
 3584 1528 8795      		ror r24
 3585 152a 2A95      	2:	dec r18
 3586 152c 02F4      		brpl 1b
 3587 152e 80FF      		sbrs r24,0
 3588 1530 00C0      		rjmp .L118
 3589 1532 EF81      		ldd r30,Y+7
 3590 1534 F885      		ldd r31,Y+8
 3591 1536 2081      		ld r18,Z
 3592 1538 8D85      		ldd r24,Y+13
 3593 153a 41E0      		ldi r20,lo8(1)
 3594 153c 50E0      		ldi r21,hi8(1)
 3595 153e BA01      		movw r22,r20
 3596 1540 00C0      		rjmp 2f
 3597 1542 660F      	1:	lsl r22
 3598 1544 771F      		rol r23
 3599 1546 8A95      	2:	dec r24
 3600 1548 02F4      		brpl 1b
 3601 154a 262B      		or r18,r22
 3602 154c 2083      		st Z,r18
 3603               	.LBB212:
 3604               	.LBB213:
 3605               	.LM281:
 3606               	/* #APP */
 3607               	 ;  45 "i2csw.c" 1
 3608 154e 0000      		nop
 3609               	 ;  0 "" 2
 3610               	 ;  45 "i2csw.c" 1
 3611 1550 0000      		nop
 3612               	 ;  0 "" 2
 3613               	 ;  45 "i2csw.c" 1
 3614 1552 0000      		nop
 3615               	 ;  0 "" 2
 3616               	 ;  45 "i2csw.c" 1
 3617 1554 0000      		nop
 3618               	 ;  0 "" 2
 3619               	 ;  45 "i2csw.c" 1
 3620 1556 0000      		nop
 3621               	 ;  0 "" 2
 3622               	/* #NOAPP */
 3623               	.LBE213:
 3624               	.LBE212:
 3625               	.LM282:
 3626 1558 EA81      		ldd r30,Y+2
 3627 155a FB81      		ldd r31,Y+3
 3628 155c 8081      		ld r24,Z
 3629 155e 0E80      		ldd r0,Y+6
 3630 1560 00C0      		rjmp 2f
 3631 1562 440F      	1:	lsl r20
 3632 1564 551F      		rol r21
 3633 1566 0A94      	2:	dec r0
 3634 1568 02F4      		brpl 1b
 3635 156a 842B      		or r24,r20
 3636 156c 8083      		st Z,r24
 3637 156e 00C0      		rjmp .L107
 3638               	.L108:
 3639               	.LBB214:
 3640               	.LBB208:
 3641               	.LM283:
 3642 1570 EA81      		ldd r30,Y+2
 3643 1572 FB81      		ldd r31,Y+3
 3644 1574 2081      		ld r18,Z
 3645 1576 CB01      		movw r24,r22
 3646 1578 0E80      		ldd r0,Y+6
 3647 157a 00C0      		rjmp 2f
 3648 157c 880F      	1:	lsl r24
 3649 157e 991F      		rol r25
 3650 1580 0A94      	2:	dec r0
 3651 1582 02F4      		brpl 1b
 3652 1584 8095      		com r24
 3653 1586 8223      		and r24,r18
 3654 1588 8083      		st Z,r24
 3655 158a 00C0      		rjmp .L109
 3656               	.L114:
 3657               	.LBE208:
 3658               	.LBE214:
 3659               	.LM284:
 3660 158c EA81      		ldd r30,Y+2
 3661 158e FB81      		ldd r31,Y+3
 3662 1590 4081      		ld r20,Z
 3663 1592 21E0      		ldi r18,lo8(1)
 3664 1594 30E0      		ldi r19,hi8(1)
 3665 1596 C901      		movw r24,r18
 3666 1598 0E80      		ldd r0,Y+6
 3667 159a 00C0      		rjmp 2f
 3668 159c 880F      	1:	lsl r24
 3669 159e 991F      		rol r25
 3670 15a0 0A94      	2:	dec r0
 3671 15a2 02F4      		brpl 1b
 3672 15a4 8095      		com r24
 3673 15a6 8423      		and r24,r20
 3674 15a8 8083      		st Z,r24
 3675               	.LBB215:
 3676               	.LBB216:
 3677               	.LM285:
 3678               	/* #APP */
 3679               	 ;  45 "i2csw.c" 1
 3680 15aa 0000      		nop
 3681               	 ;  0 "" 2
 3682               	 ;  45 "i2csw.c" 1
 3683 15ac 0000      		nop
 3684               	 ;  0 "" 2
 3685               	 ;  45 "i2csw.c" 1
 3686 15ae 0000      		nop
 3687               	 ;  0 "" 2
 3688               	 ;  45 "i2csw.c" 1
 3689 15b0 0000      		nop
 3690               	 ;  0 "" 2
 3691               	 ;  45 "i2csw.c" 1
 3692 15b2 0000      		nop
 3693               	 ;  0 "" 2
 3694               	 ;  45 "i2csw.c" 1
 3695 15b4 0000      		nop
 3696               	 ;  0 "" 2
 3697               	 ;  45 "i2csw.c" 1
 3698 15b6 0000      		nop
 3699               	 ;  0 "" 2
 3700               	 ;  45 "i2csw.c" 1
 3701 15b8 0000      		nop
 3702               	 ;  0 "" 2
 3703               	 ;  45 "i2csw.c" 1
 3704 15ba 0000      		nop
 3705               	 ;  0 "" 2
 3706               	/* #NOAPP */
 3707               	.LBE216:
 3708               	.LBE215:
 3709               	.LM286:
 3710 15bc E985      		ldd r30,Y+9
 3711 15be FA85      		ldd r31,Y+10
 3712 15c0 4081      		ld r20,Z
 3713 15c2 8D85      		ldd r24,Y+13
 3714 15c4 8901      		movw r16,r18
 3715 15c6 00C0      		rjmp 2f
 3716 15c8 000F      	1:	lsl r16
 3717 15ca 111F      		rol r17
 3718 15cc 8A95      	2:	dec r24
 3719 15ce 02F4      		brpl 1b
 3720 15d0 402B      		or r20,r16
 3721 15d2 4083      		st Z,r20
 3722 15d4 EF81      		ldd r30,Y+7
 3723 15d6 F885      		ldd r31,Y+8
 3724 15d8 9081      		ld r25,Z
 3725 15da 8D85      		ldd r24,Y+13
 3726 15dc 00C0      		rjmp 2f
 3727 15de 220F      	1:	lsl r18
 3728 15e0 331F      		rol r19
 3729 15e2 8A95      	2:	dec r24
 3730 15e4 02F4      		brpl 1b
 3731 15e6 2095      		com r18
 3732 15e8 2923      		and r18,r25
 3733 15ea 2083      		st Z,r18
 3734 15ec EB85      		ldd r30,Y+11
 3735 15ee FC85      		ldd r31,Y+12
 3736               	.L116:
 3737 15f0 8081      		ld r24,Z
 3738 15f2 2D85      		ldd r18,Y+13
 3739 15f4 90E0      		ldi r25,lo8(0)
 3740 15f6 00C0      		rjmp 2f
 3741 15f8 9595      	1:	asr r25
 3742 15fa 8795      		ror r24
 3743 15fc 2A95      	2:	dec r18
 3744 15fe 02F4      		brpl 1b
 3745 1600 80FF      		sbrs r24,0
 3746 1602 00C0      		rjmp .L116
 3747 1604 EF81      		ldd r30,Y+7
 3748 1606 F885      		ldd r31,Y+8
 3749 1608 2081      		ld r18,Z
 3750 160a 8D85      		ldd r24,Y+13
 3751 160c 41E0      		ldi r20,lo8(1)
 3752 160e 50E0      		ldi r21,hi8(1)
 3753 1610 BA01      		movw r22,r20
 3754 1612 00C0      		rjmp 2f
 3755 1614 660F      	1:	lsl r22
 3756 1616 771F      		rol r23
 3757 1618 8A95      	2:	dec r24
 3758 161a 02F4      		brpl 1b
 3759 161c 262B      		or r18,r22
 3760 161e 2083      		st Z,r18
 3761               	.LBB217:
 3762               	.LBB218:
 3763               	.LM287:
 3764               	/* #APP */
 3765               	 ;  45 "i2csw.c" 1
 3766 1620 0000      		nop
 3767               	 ;  0 "" 2
 3768               	 ;  45 "i2csw.c" 1
 3769 1622 0000      		nop
 3770               	 ;  0 "" 2
 3771               	 ;  45 "i2csw.c" 1
 3772 1624 0000      		nop
 3773               	 ;  0 "" 2
 3774               	 ;  45 "i2csw.c" 1
 3775 1626 0000      		nop
 3776               	 ;  0 "" 2
 3777               	 ;  45 "i2csw.c" 1
 3778 1628 0000      		nop
 3779               	 ;  0 "" 2
 3780               	/* #NOAPP */
 3781               	.LBE218:
 3782               	.LBE217:
 3783               	.LM288:
 3784 162a EA81      		ldd r30,Y+2
 3785 162c FB81      		ldd r31,Y+3
 3786 162e 8081      		ld r24,Z
 3787 1630 0E80      		ldd r0,Y+6
 3788 1632 00C0      		rjmp 2f
 3789 1634 440F      	1:	lsl r20
 3790 1636 551F      		rol r21
 3791 1638 0A94      	2:	dec r0
 3792 163a 02F4      		brpl 1b
 3793 163c 842B      		or r24,r20
 3794 163e 8083      		st Z,r24
 3795               	.LM289:
 3796 1640 00D0      		rcall .
 3797 1642 00D0      		rcall .
 3798 1644 80E0      		ldi r24,lo8(.LC4)
 3799 1646 90E0      		ldi r25,hi8(.LC4)
 3800 1648 ADB7      		in r26,__SP_L__
 3801 164a BEB7      		in r27,__SP_H__
 3802 164c 1296      		adiw r26,1+1
 3803 164e 9C93      		st X,r25
 3804 1650 8E93      		st -X,r24
 3805 1652 1197      		sbiw r26,1
 3806 1654 1496      		adiw r26,3+1
 3807 1656 9C92      		st X,r9
 3808 1658 8E92      		st -X,r8
 3809 165a 1397      		sbiw r26,3
 3810 165c 0E94 0000 		call printf
 3811 1660 0F90      		pop __tmp_reg__
 3812 1662 0F90      		pop __tmp_reg__
 3813 1664 0F90      		pop __tmp_reg__
 3814 1666 0F90      		pop __tmp_reg__
 3815 1668 00C0      		rjmp .L107
 3816               	.LFE12:
 3818               	.global	i2c_master_write
 3820               	i2c_master_write:
 3821               	.LFB15:
 3822               	.LM290:
 3823               	.LVL35:
 3824 166a CF93      		push r28
 3825 166c DF93      		push r29
 3826               	/* prologue: function */
 3827               	/* frame size = 0 */
 3828 166e EC01      		movw r28,r24
 3829               	.LM291:
 3830 1670 FC01      		movw r30,r24
 3831 1672 EC5A      		subi r30,lo8(-(84))
 3832 1674 FF4F      		sbci r31,hi8(-(84))
 3833 1676 9C01      		movw r18,r24
 3834 1678 2B5A      		subi r18,lo8(-(85))
 3835 167a 3F4F      		sbci r19,hi8(-(85))
 3836 167c 8F89      		ldd r24,Y+23
 3837 167e 988D      		ldd r25,Y+24
 3838               	.LVL36:
 3839 1680 6081      		ld r22,Z
 3840 1682 4D81      		ldd r20,Y+5
 3841 1684 0E94 0000 		call i2c_Send
 3842               	.LM292:
 3843 1688 8823      		tst r24
 3844 168a 01F0      		breq .L136
 3845               	.LM293:
 3846 168c CE01      		movw r24,r28
 3847 168e 63E0      		ldi r22,lo8(3)
 3848 1690 70E0      		ldi r23,hi8(3)
 3849 1692 0E94 0000 		call ws_set_state
 3850               	/* epilogue start */
 3851               	.LM294:
 3852 1696 DF91      		pop r29
 3853 1698 CF91      		pop r28
 3854               	.LVL37:
 3855 169a 0895      		ret
 3856               	.LVL38:
 3857               	.L136:
 3858               	.LM295:
 3859 169c 8A8D      		ldd r24,Y+26
 3860 169e 9B8D      		ldd r25,Y+27
 3861 16a0 AC8D      		ldd r26,Y+28
 3862 16a2 BD8D      		ldd r27,Y+29
 3863 16a4 0196      		adiw r24,1
 3864 16a6 A11D      		adc r26,__zero_reg__
 3865 16a8 B11D      		adc r27,__zero_reg__
 3866 16aa 8A8F      		std Y+26,r24
 3867 16ac 9B8F      		std Y+27,r25
 3868 16ae AC8F      		std Y+28,r26
 3869 16b0 BD8F      		std Y+29,r27
 3870               	.LM296:
 3871 16b2 CE01      		movw r24,r28
 3872 16b4 65E0      		ldi r22,lo8(5)
 3873 16b6 70E0      		ldi r23,hi8(5)
 3874 16b8 0E94 0000 		call ws_set_state
 3875               	.LM297:
 3876 16bc DF91      		pop r29
 3877 16be CF91      		pop r28
 3878               	.LVL39:
 3879 16c0 0895      		ret
 3880               	.LFE15:
 3882               		.data
 3883               	.LC5:
 3884 006c 0A0D 6932 		.string	"\n\ri2c_Read\n\raddr %X LEN: 0x%02X - \n\r"
 3884      635F 5265 
 3884      6164 0A0D 
 3884      6164 6472 
 3884      2025 5820 
 3885               		.text
 3886               	.global	i2c_Read
 3888               	i2c_Read:
 3889               	.LFB13:
 3890               	.LM298:
 3891               	.LVL40:
 3892 16c2 8F92      		push r8
 3893 16c4 9F92      		push r9
 3894 16c6 AF92      		push r10
 3895 16c8 BF92      		push r11
 3896 16ca CF92      		push r12
 3897 16cc DF92      		push r13
 3898 16ce EF92      		push r14
 3899 16d0 FF92      		push r15
 3900 16d2 0F93      		push r16
 3901 16d4 1F93      		push r17
 3902 16d6 CF93      		push r28
 3903 16d8 DF93      		push r29
 3904               	/* prologue: function */
 3905               	/* frame size = 0 */
 3906 16da EC01      		movw r28,r24
 3907 16dc F62E      		mov r15,r22
 3908 16de E22E      		mov r14,r18
 3909 16e0 A32E      		mov r10,r19
 3910               	.LVL41:
 3911               	.LM299:
 3912 16e2 C42E      		mov r12,r20
 3913 16e4 DD24      		clr r13
 3914               	.LM300:
 3915 16e6 00D0      		rcall .
 3916 16e8 00D0      		rcall .
 3917 16ea 00D0      		rcall .
 3918 16ec EDB7      		in r30,__SP_L__
 3919 16ee FEB7      		in r31,__SP_H__
 3920 16f0 3196      		adiw r30,1
 3921 16f2 80E0      		ldi r24,lo8(.LC5)
 3922 16f4 90E0      		ldi r25,hi8(.LC5)
 3923               	.LVL42:
 3924 16f6 ADB7      		in r26,__SP_L__
 3925 16f8 BEB7      		in r27,__SP_H__
 3926 16fa 1296      		adiw r26,1+1
 3927 16fc 9C93      		st X,r25
 3928 16fe 8E93      		st -X,r24
 3929 1700 1197      		sbiw r26,1
 3930 1702 6283      		std Z+2,r22
 3931 1704 1382      		std Z+3,__zero_reg__
 3932 1706 D582      		std Z+5,r13
 3933 1708 C482      		std Z+4,r12
 3934 170a 0E94 0000 		call printf
 3935               	.LVL43:
 3936               	.LM301:
 3937 170e E881      		ld r30,Y
 3938 1710 F981      		ldd r31,Y+1
 3939 1712 4081      		ld r20,Z
 3940 1714 21E0      		ldi r18,lo8(1)
 3941 1716 30E0      		ldi r19,hi8(1)
 3942 1718 C901      		movw r24,r18
 3943 171a 0E80      		ldd r0,Y+6
 3944 171c 00C0      		rjmp 2f
 3945 171e 880F      	1:	lsl r24
 3946 1720 991F      		rol r25
 3947 1722 0A94      	2:	dec r0
 3948 1724 02F4      		brpl 1b
 3949 1726 482B      		or r20,r24
 3950 1728 4083      		st Z,r20
 3951               	.LM302:
 3952 172a EF81      		ldd r30,Y+7
 3953 172c F885      		ldd r31,Y+8
 3954 172e 4081      		ld r20,Z
 3955 1730 8D85      		ldd r24,Y+13
 3956 1732 4901      		movw r8,r18
 3957 1734 00C0      		rjmp 2f
 3958 1736 880C      	1:	lsl r8
 3959 1738 991C      		rol r9
 3960 173a 8A95      	2:	dec r24
 3961 173c 02F4      		brpl 1b
 3962 173e 4829      		or r20,r8
 3963 1740 4083      		st Z,r20
 3964               	.LM303:
 3965 1742 E985      		ldd r30,Y+9
 3966 1744 FA85      		ldd r31,Y+10
 3967 1746 4081      		ld r20,Z
 3968 1748 8D85      		ldd r24,Y+13
 3969 174a B901      		movw r22,r18
 3970 174c 00C0      		rjmp 2f
 3971 174e 660F      	1:	lsl r22
 3972 1750 771F      		rol r23
 3973 1752 8A95      	2:	dec r24
 3974 1754 02F4      		brpl 1b
 3975 1756 462B      		or r20,r22
 3976 1758 4083      		st Z,r20
 3977 175a EF81      		ldd r30,Y+7
 3978 175c F885      		ldd r31,Y+8
 3979 175e 9081      		ld r25,Z
 3980 1760 8D85      		ldd r24,Y+13
 3981 1762 00C0      		rjmp 2f
 3982 1764 220F      	1:	lsl r18
 3983 1766 331F      		rol r19
 3984 1768 8A95      	2:	dec r24
 3985 176a 02F4      		brpl 1b
 3986 176c 2095      		com r18
 3987 176e 2923      		and r18,r25
 3988 1770 2083      		st Z,r18
 3989 1772 EB85      		ldd r30,Y+11
 3990 1774 FC85      		ldd r31,Y+12
 3991 1776 8DB7      		in r24,__SP_L__
 3992 1778 9EB7      		in r25,__SP_H__
 3993 177a 0696      		adiw r24,6
 3994 177c 0FB6      		in __tmp_reg__,__SREG__
 3995 177e F894      		cli
 3996 1780 9EBF      		out __SP_H__,r25
 3997 1782 0FBE      		out __SREG__,__tmp_reg__
 3998 1784 8DBF      		out __SP_L__,r24
 3999               	.L138:
 4000 1786 8081      		ld r24,Z
 4001 1788 2D85      		ldd r18,Y+13
 4002 178a 90E0      		ldi r25,lo8(0)
 4003 178c 00C0      		rjmp 2f
 4004 178e 9595      	1:	asr r25
 4005 1790 8795      		ror r24
 4006 1792 2A95      	2:	dec r18
 4007 1794 02F4      		brpl 1b
 4008 1796 80FF      		sbrs r24,0
 4009 1798 00C0      		rjmp .L138
 4010 179a EF81      		ldd r30,Y+7
 4011 179c F885      		ldd r31,Y+8
 4012 179e 2081      		ld r18,Z
 4013 17a0 8D85      		ldd r24,Y+13
 4014 17a2 41E0      		ldi r20,lo8(1)
 4015 17a4 50E0      		ldi r21,hi8(1)
 4016 17a6 DA01      		movw r26,r20
 4017 17a8 00C0      		rjmp 2f
 4018 17aa AA0F      	1:	lsl r26
 4019 17ac BB1F      		rol r27
 4020 17ae 8A95      	2:	dec r24
 4021 17b0 02F4      		brpl 1b
 4022 17b2 2A2B      		or r18,r26
 4023 17b4 2083      		st Z,r18
 4024 17b6 EA81      		ldd r30,Y+2
 4025 17b8 FB81      		ldd r31,Y+3
 4026 17ba 2081      		ld r18,Z
 4027 17bc CA01      		movw r24,r20
 4028 17be 0E80      		ldd r0,Y+6
 4029 17c0 00C0      		rjmp 2f
 4030 17c2 880F      	1:	lsl r24
 4031 17c4 991F      		rol r25
 4032 17c6 0A94      	2:	dec r0
 4033 17c8 02F4      		brpl 1b
 4034 17ca 282B      		or r18,r24
 4035 17cc 2083      		st Z,r18
 4036               	.LBB253:
 4037               	.LBB254:
 4038               	.LM304:
 4039               	/* #APP */
 4040               	 ;  45 "i2csw.c" 1
 4041 17ce 0000      		nop
 4042               	 ;  0 "" 2
 4043               	 ;  45 "i2csw.c" 1
 4044 17d0 0000      		nop
 4045               	 ;  0 "" 2
 4046               	 ;  45 "i2csw.c" 1
 4047 17d2 0000      		nop
 4048               	 ;  0 "" 2
 4049               	 ;  45 "i2csw.c" 1
 4050 17d4 0000      		nop
 4051               	 ;  0 "" 2
 4052               	 ;  45 "i2csw.c" 1
 4053 17d6 0000      		nop
 4054               	 ;  0 "" 2
 4055               	/* #NOAPP */
 4056               	.LBE254:
 4057               	.LBE253:
 4058               	.LM305:
 4059 17d8 EA81      		ldd r30,Y+2
 4060 17da FB81      		ldd r31,Y+3
 4061 17dc 2081      		ld r18,Z
 4062 17de CA01      		movw r24,r20
 4063 17e0 0E80      		ldd r0,Y+6
 4064 17e2 00C0      		rjmp 2f
 4065 17e4 880F      	1:	lsl r24
 4066 17e6 991F      		rol r25
 4067 17e8 0A94      	2:	dec r0
 4068 17ea 02F4      		brpl 1b
 4069 17ec 8095      		com r24
 4070 17ee 8223      		and r24,r18
 4071 17f0 8083      		st Z,r24
 4072               	.LBB255:
 4073               	.LBB256:
 4074               	.LM306:
 4075               	/* #APP */
 4076               	 ;  45 "i2csw.c" 1
 4077 17f2 0000      		nop
 4078               	 ;  0 "" 2
 4079               	 ;  45 "i2csw.c" 1
 4080 17f4 0000      		nop
 4081               	 ;  0 "" 2
 4082               	 ;  45 "i2csw.c" 1
 4083 17f6 0000      		nop
 4084               	 ;  0 "" 2
 4085               	 ;  45 "i2csw.c" 1
 4086 17f8 0000      		nop
 4087               	 ;  0 "" 2
 4088               	 ;  45 "i2csw.c" 1
 4089 17fa 0000      		nop
 4090               	 ;  0 "" 2
 4091               	/* #NOAPP */
 4092               	.LBE256:
 4093               	.LBE255:
 4094               	.LM307:
 4095 17fc E985      		ldd r30,Y+9
 4096 17fe FA85      		ldd r31,Y+10
 4097 1800 9081      		ld r25,Z
 4098 1802 8D85      		ldd r24,Y+13
 4099 1804 00C0      		rjmp 2f
 4100 1806 440F      	1:	lsl r20
 4101 1808 551F      		rol r21
 4102 180a 8A95      	2:	dec r24
 4103 180c 02F4      		brpl 1b
 4104 180e 4095      		com r20
 4105 1810 4923      		and r20,r25
 4106 1812 4083      		st Z,r20
 4107 1814 8F2D      		mov r24,r15
 4108 1816 8160      		ori r24,lo8(1)
 4109 1818 082F      		mov r16,r24
 4110 181a 10E0      		ldi r17,lo8(0)
 4111 181c 47E0      		ldi r20,lo8(7)
 4112 181e 50E0      		ldi r21,hi8(7)
 4113               	.LBB257:
 4114               	.LBB259:
 4115               	.LM308:
 4116 1820 61E0      		ldi r22,lo8(1)
 4117 1822 70E0      		ldi r23,hi8(1)
 4118               	.L142:
 4119               	.LBE259:
 4120               	.LM309:
 4121 1824 C801      		movw r24,r16
 4122 1826 042E      		mov r0,r20
 4123 1828 00C0      		rjmp 2f
 4124 182a 9595      	1:	asr r25
 4125 182c 8795      		ror r24
 4126 182e 0A94      	2:	dec r0
 4127 1830 02F4      		brpl 1b
 4128 1832 80FF      		sbrs r24,0
 4129 1834 00C0      		rjmp .L139
 4130               	.LBB258:
 4131               	.LM310:
 4132 1836 EA81      		ldd r30,Y+2
 4133 1838 FB81      		ldd r31,Y+3
 4134 183a 2081      		ld r18,Z
 4135 183c CB01      		movw r24,r22
 4136 183e 0E80      		ldd r0,Y+6
 4137 1840 00C0      		rjmp 2f
 4138 1842 880F      	1:	lsl r24
 4139 1844 991F      		rol r25
 4140 1846 0A94      	2:	dec r0
 4141 1848 02F4      		brpl 1b
 4142 184a 282B      		or r18,r24
 4143 184c 2083      		st Z,r18
 4144               	.L140:
 4145               	.LBB268:
 4146               	.LBB269:
 4147               	.LM311:
 4148               	/* #APP */
 4149               	 ;  45 "i2csw.c" 1
 4150 184e 0000      		nop
 4151               	 ;  0 "" 2
 4152               	 ;  45 "i2csw.c" 1
 4153 1850 0000      		nop
 4154               	 ;  0 "" 2
 4155               	 ;  45 "i2csw.c" 1
 4156 1852 0000      		nop
 4157               	 ;  0 "" 2
 4158               	 ;  45 "i2csw.c" 1
 4159 1854 0000      		nop
 4160               	 ;  0 "" 2
 4161               	 ;  45 "i2csw.c" 1
 4162 1856 0000      		nop
 4163               	 ;  0 "" 2
 4164               	/* #NOAPP */
 4165               	.LBE269:
 4166               	.LBE268:
 4167               	.LM312:
 4168 1858 E985      		ldd r30,Y+9
 4169 185a FA85      		ldd r31,Y+10
 4170 185c 2081      		ld r18,Z
 4171 185e 8D85      		ldd r24,Y+13
 4172 1860 4B01      		movw r8,r22
 4173 1862 00C0      		rjmp 2f
 4174 1864 880C      	1:	lsl r8
 4175 1866 991C      		rol r9
 4176 1868 8A95      	2:	dec r24
 4177 186a 02F4      		brpl 1b
 4178 186c 2829      		or r18,r8
 4179 186e 2083      		st Z,r18
 4180 1870 EF81      		ldd r30,Y+7
 4181 1872 F885      		ldd r31,Y+8
 4182 1874 2081      		ld r18,Z
 4183 1876 8D85      		ldd r24,Y+13
 4184 1878 DB01      		movw r26,r22
 4185 187a 00C0      		rjmp 2f
 4186 187c AA0F      	1:	lsl r26
 4187 187e BB1F      		rol r27
 4188 1880 8A95      	2:	dec r24
 4189 1882 02F4      		brpl 1b
 4190 1884 CD01      		movw r24,r26
 4191 1886 8095      		com r24
 4192 1888 8223      		and r24,r18
 4193 188a 8083      		st Z,r24
 4194 188c EB85      		ldd r30,Y+11
 4195 188e FC85      		ldd r31,Y+12
 4196               	.L141:
 4197 1890 8081      		ld r24,Z
 4198 1892 2D85      		ldd r18,Y+13
 4199 1894 90E0      		ldi r25,lo8(0)
 4200 1896 00C0      		rjmp 2f
 4201 1898 9595      	1:	asr r25
 4202 189a 8795      		ror r24
 4203 189c 2A95      	2:	dec r18
 4204 189e 02F4      		brpl 1b
 4205 18a0 80FF      		sbrs r24,0
 4206 18a2 00C0      		rjmp .L141
 4207 18a4 EF81      		ldd r30,Y+7
 4208 18a6 F885      		ldd r31,Y+8
 4209 18a8 2081      		ld r18,Z
 4210 18aa 8D85      		ldd r24,Y+13
 4211 18ac A1E0      		ldi r26,lo8(1)
 4212 18ae B0E0      		ldi r27,hi8(1)
 4213 18b0 4B01      		movw r8,r22
 4214 18b2 00C0      		rjmp 2f
 4215 18b4 880C      	1:	lsl r8
 4216 18b6 991C      		rol r9
 4217 18b8 8A95      	2:	dec r24
 4218 18ba 02F4      		brpl 1b
 4219 18bc 2829      		or r18,r8
 4220 18be 2083      		st Z,r18
 4221               	.LBB266:
 4222               	.LBB267:
 4223               	.LM313:
 4224               	/* #APP */
 4225               	 ;  45 "i2csw.c" 1
 4226 18c0 0000      		nop
 4227               	 ;  0 "" 2
 4228               	 ;  45 "i2csw.c" 1
 4229 18c2 0000      		nop
 4230               	 ;  0 "" 2
 4231               	 ;  45 "i2csw.c" 1
 4232 18c4 0000      		nop
 4233               	 ;  0 "" 2
 4234               	 ;  45 "i2csw.c" 1
 4235 18c6 0000      		nop
 4236               	 ;  0 "" 2
 4237               	 ;  45 "i2csw.c" 1
 4238 18c8 0000      		nop
 4239               	 ;  0 "" 2
 4240               	 ;  45 "i2csw.c" 1
 4241 18ca 0000      		nop
 4242               	 ;  0 "" 2
 4243               	 ;  45 "i2csw.c" 1
 4244 18cc 0000      		nop
 4245               	 ;  0 "" 2
 4246               	 ;  45 "i2csw.c" 1
 4247 18ce 0000      		nop
 4248               	 ;  0 "" 2
 4249               	 ;  45 "i2csw.c" 1
 4250 18d0 0000      		nop
 4251               	 ;  0 "" 2
 4252               	/* #NOAPP */
 4253               	.LBE267:
 4254               	.LBE266:
 4255               	.LM314:
 4256 18d2 E985      		ldd r30,Y+9
 4257 18d4 FA85      		ldd r31,Y+10
 4258 18d6 2081      		ld r18,Z
 4259 18d8 8D85      		ldd r24,Y+13
 4260 18da 4B01      		movw r8,r22
 4261 18dc 00C0      		rjmp 2f
 4262 18de 880C      	1:	lsl r8
 4263 18e0 991C      		rol r9
 4264 18e2 8A95      	2:	dec r24
 4265 18e4 02F4      		brpl 1b
 4266 18e6 C401      		movw r24,r8
 4267 18e8 8095      		com r24
 4268 18ea 8223      		and r24,r18
 4269 18ec 8083      		st Z,r24
 4270 18ee 4150      		subi r20,lo8(-(-1))
 4271 18f0 5040      		sbci r21,hi8(-(-1))
 4272               	.LM315:
 4273 18f2 8FEF      		ldi r24,hi8(-1)
 4274 18f4 4F3F      		cpi r20,lo8(-1)
 4275 18f6 5807      		cpc r21,r24
 4276 18f8 01F0      		breq .+2
 4277 18fa 00C0      		rjmp .L142
 4278               	.LM316:
 4279 18fc EA81      		ldd r30,Y+2
 4280 18fe FB81      		ldd r31,Y+3
 4281 1900 2081      		ld r18,Z
 4282 1902 CD01      		movw r24,r26
 4283 1904 0E80      		ldd r0,Y+6
 4284 1906 00C0      		rjmp 2f
 4285 1908 880F      	1:	lsl r24
 4286 190a 991F      		rol r25
 4287 190c 0A94      	2:	dec r0
 4288 190e 02F4      		brpl 1b
 4289 1910 8095      		com r24
 4290 1912 8223      		and r24,r18
 4291 1914 8083      		st Z,r24
 4292               	.LM317:
 4293 1916 E881      		ld r30,Y
 4294 1918 F981      		ldd r31,Y+1
 4295 191a 2081      		ld r18,Z
 4296 191c CD01      		movw r24,r26
 4297 191e 0E80      		ldd r0,Y+6
 4298 1920 00C0      		rjmp 2f
 4299 1922 880F      	1:	lsl r24
 4300 1924 991F      		rol r25
 4301 1926 0A94      	2:	dec r0
 4302 1928 02F4      		brpl 1b
 4303 192a 8095      		com r24
 4304 192c 8223      		and r24,r18
 4305 192e 8083      		st Z,r24
 4306               	.LBB264:
 4307               	.LBB265:
 4308               	.LM318:
 4309               	/* #APP */
 4310               	 ;  45 "i2csw.c" 1
 4311 1930 0000      		nop
 4312               	 ;  0 "" 2
 4313               	 ;  45 "i2csw.c" 1
 4314 1932 0000      		nop
 4315               	 ;  0 "" 2
 4316               	 ;  45 "i2csw.c" 1
 4317 1934 0000      		nop
 4318               	 ;  0 "" 2
 4319               	 ;  45 "i2csw.c" 1
 4320 1936 0000      		nop
 4321               	 ;  0 "" 2
 4322               	 ;  45 "i2csw.c" 1
 4323 1938 0000      		nop
 4324               	 ;  0 "" 2
 4325               	 ;  45 "i2csw.c" 1
 4326 193a 0000      		nop
 4327               	 ;  0 "" 2
 4328               	 ;  45 "i2csw.c" 1
 4329 193c 0000      		nop
 4330               	 ;  0 "" 2
 4331               	 ;  45 "i2csw.c" 1
 4332 193e 0000      		nop
 4333               	 ;  0 "" 2
 4334               	/* #NOAPP */
 4335               	.LBE265:
 4336               	.LBE264:
 4337               	.LM319:
 4338 1940 E985      		ldd r30,Y+9
 4339 1942 FA85      		ldd r31,Y+10
 4340 1944 2081      		ld r18,Z
 4341 1946 8D85      		ldd r24,Y+13
 4342 1948 4D01      		movw r8,r26
 4343 194a 00C0      		rjmp 2f
 4344 194c 880C      	1:	lsl r8
 4345 194e 991C      		rol r9
 4346 1950 8A95      	2:	dec r24
 4347 1952 02F4      		brpl 1b
 4348 1954 2829      		or r18,r8
 4349 1956 2083      		st Z,r18
 4350 1958 EF81      		ldd r30,Y+7
 4351 195a F885      		ldd r31,Y+8
 4352 195c 9081      		ld r25,Z
 4353 195e 8D85      		ldd r24,Y+13
 4354 1960 00C0      		rjmp 2f
 4355 1962 AA0F      	1:	lsl r26
 4356 1964 BB1F      		rol r27
 4357 1966 8A95      	2:	dec r24
 4358 1968 02F4      		brpl 1b
 4359 196a 8A2F      		mov r24,r26
 4360 196c 8095      		com r24
 4361 196e 8923      		and r24,r25
 4362 1970 8083      		st Z,r24
 4363 1972 EB85      		ldd r30,Y+11
 4364 1974 FC85      		ldd r31,Y+12
 4365               	.L143:
 4366 1976 8081      		ld r24,Z
 4367 1978 2D85      		ldd r18,Y+13
 4368 197a 90E0      		ldi r25,lo8(0)
 4369 197c 00C0      		rjmp 2f
 4370 197e 9595      	1:	asr r25
 4371 1980 8795      		ror r24
 4372 1982 2A95      	2:	dec r18
 4373 1984 02F4      		brpl 1b
 4374 1986 80FF      		sbrs r24,0
 4375 1988 00C0      		rjmp .L143
 4376 198a EF81      		ldd r30,Y+7
 4377 198c F885      		ldd r31,Y+8
 4378 198e 2081      		ld r18,Z
 4379 1990 8D85      		ldd r24,Y+13
 4380 1992 61E0      		ldi r22,lo8(1)
 4381 1994 70E0      		ldi r23,hi8(1)
 4382 1996 AB01      		movw r20,r22
 4383 1998 00C0      		rjmp 2f
 4384 199a 440F      	1:	lsl r20
 4385 199c 551F      		rol r21
 4386 199e 8A95      	2:	dec r24
 4387 19a0 02F4      		brpl 1b
 4388 19a2 242B      		or r18,r20
 4389 19a4 2083      		st Z,r18
 4390               	.LM320:
 4391 19a6 EC81      		ldd r30,Y+4
 4392 19a8 FD81      		ldd r31,Y+5
 4393 19aa 3081      		ld r19,Z
 4394 19ac 4E81      		ldd r20,Y+6
 4395               	.LBB262:
 4396               	.LBB263:
 4397               	.LM321:
 4398               	/* #APP */
 4399               	 ;  45 "i2csw.c" 1
 4400 19ae 0000      		nop
 4401               	 ;  0 "" 2
 4402               	 ;  45 "i2csw.c" 1
 4403 19b0 0000      		nop
 4404               	 ;  0 "" 2
 4405               	 ;  45 "i2csw.c" 1
 4406 19b2 0000      		nop
 4407               	 ;  0 "" 2
 4408               	 ;  45 "i2csw.c" 1
 4409 19b4 0000      		nop
 4410               	 ;  0 "" 2
 4411               	 ;  45 "i2csw.c" 1
 4412 19b6 0000      		nop
 4413               	 ;  0 "" 2
 4414               	 ;  45 "i2csw.c" 1
 4415 19b8 0000      		nop
 4416               	 ;  0 "" 2
 4417               	 ;  45 "i2csw.c" 1
 4418 19ba 0000      		nop
 4419               	 ;  0 "" 2
 4420               	 ;  45 "i2csw.c" 1
 4421 19bc 0000      		nop
 4422               	 ;  0 "" 2
 4423               	 ;  45 "i2csw.c" 1
 4424 19be 0000      		nop
 4425               	 ;  0 "" 2
 4426               	/* #NOAPP */
 4427               	.LBE263:
 4428               	.LBE262:
 4429               	.LM322:
 4430 19c0 E985      		ldd r30,Y+9
 4431 19c2 FA85      		ldd r31,Y+10
 4432 19c4 2081      		ld r18,Z
 4433 19c6 8D85      		ldd r24,Y+13
 4434 19c8 DB01      		movw r26,r22
 4435 19ca 00C0      		rjmp 2f
 4436 19cc AA0F      	1:	lsl r26
 4437 19ce BB1F      		rol r27
 4438 19d0 8A95      	2:	dec r24
 4439 19d2 02F4      		brpl 1b
 4440 19d4 CD01      		movw r24,r26
 4441 19d6 8095      		com r24
 4442 19d8 8223      		and r24,r18
 4443 19da 8083      		st Z,r24
 4444               	.LM323:
 4445 19dc E881      		ld r30,Y
 4446 19de F981      		ldd r31,Y+1
 4447 19e0 2081      		ld r18,Z
 4448 19e2 CB01      		movw r24,r22
 4449 19e4 0E80      		ldd r0,Y+6
 4450 19e6 00C0      		rjmp 2f
 4451 19e8 880F      	1:	lsl r24
 4452 19ea 991F      		rol r25
 4453 19ec 0A94      	2:	dec r0
 4454 19ee 02F4      		brpl 1b
 4455 19f0 282B      		or r18,r24
 4456 19f2 2083      		st Z,r18
 4457               	.LBB260:
 4458               	.LBB261:
 4459               	.LM324:
 4460               	/* #APP */
 4461               	 ;  45 "i2csw.c" 1
 4462 19f4 0000      		nop
 4463               	 ;  0 "" 2
 4464               	 ;  45 "i2csw.c" 1
 4465 19f6 0000      		nop
 4466               	 ;  0 "" 2
 4467               	 ;  45 "i2csw.c" 1
 4468 19f8 0000      		nop
 4469               	 ;  0 "" 2
 4470               	 ;  45 "i2csw.c" 1
 4471 19fa 0000      		nop
 4472               	 ;  0 "" 2
 4473               	 ;  45 "i2csw.c" 1
 4474 19fc 0000      		nop
 4475               	 ;  0 "" 2
 4476               	/* #NOAPP */
 4477               	.LBE261:
 4478               	.LBE260:
 4479               	.LM325:
 4480 19fe BB24      		clr r11
 4481               	.LVL44:
 4482 1a00 4B01      		movw r8,r22
 4483 1a02 00C0      		rjmp 2f
 4484 1a04 880C      	1:	lsl r8
 4485 1a06 991C      		rol r9
 4486 1a08 4A95      	2:	dec r20
 4487 1a0a 02F4      		brpl 1b
 4488 1a0c 3821      		and r19,r8
 4489 1a0e 01F0      		breq .+2
 4490 1a10 00C0      		rjmp .L145
 4491 1a12 BB24      		clr r11
 4492 1a14 B394      		inc r11
 4493               	.LBE258:
 4494               	.LBE257:
 4495               	.LM326:
 4496 1a16 C114      		cp r12,__zero_reg__
 4497 1a18 D104      		cpc r13,__zero_reg__
 4498 1a1a 01F4      		brne .+2
 4499 1a1c 00C0      		rjmp .L147
 4500               	.LM327:
 4501 1a1e 8E2D      		mov r24,r14
 4502               	.LVL45:
 4503 1a20 9A2D      		mov r25,r10
 4504               	.LVL46:
 4505 1a22 DC01      		movw r26,r24
 4506               	.LBB271:
 4507               	.LBB273:
 4508               	.LM328:
 4509 1a24 61E0      		ldi r22,lo8(1)
 4510 1a26 70E0      		ldi r23,hi8(1)
 4511               	.LM329:
 4512 1a28 01E0      		ldi r16,lo8(1)
 4513 1a2a 10E0      		ldi r17,hi8(1)
 4514               	.LM330:
 4515 1a2c 7D01      		movw r14,r26
 4516               	.LVL47:
 4517 1a2e EC0C      		add r14,r12
 4518 1a30 FD1C      		adc r15,r13
 4519 1a32 0894      		sec
 4520 1a34 E108      		sbc r14,__zero_reg__
 4521 1a36 F108      		sbc r15,__zero_reg__
 4522               	.LBE273:
 4523               	.LBE271:
 4524               	.LM331:
 4525 1a38 0894      		sec
 4526 1a3a C108      		sbc r12,__zero_reg__
 4527 1a3c D108      		sbc r13,__zero_reg__
 4528 1a3e CA0E      		add r12,r26
 4529 1a40 DB1E      		adc r13,r27
 4530               	.LVL48:
 4531               	.L157:
 4532               	.LBB283:
 4533               	.LBB272:
 4534               	.LM332:
 4535 1a42 EA81      		ldd r30,Y+2
 4536 1a44 FB81      		ldd r31,Y+3
 4537 1a46 2081      		ld r18,Z
 4538 1a48 CB01      		movw r24,r22
 4539 1a4a 0E80      		ldd r0,Y+6
 4540 1a4c 00C0      		rjmp 2f
 4541 1a4e 880F      	1:	lsl r24
 4542 1a50 991F      		rol r25
 4543 1a52 0A94      	2:	dec r0
 4544 1a54 02F4      		brpl 1b
 4545 1a56 282B      		or r18,r24
 4546 1a58 2083      		st Z,r18
 4547               	.LM333:
 4548 1a5a E881      		ld r30,Y
 4549 1a5c F981      		ldd r31,Y+1
 4550 1a5e 2081      		ld r18,Z
 4551 1a60 CB01      		movw r24,r22
 4552 1a62 0E80      		ldd r0,Y+6
 4553 1a64 00C0      		rjmp 2f
 4554 1a66 880F      	1:	lsl r24
 4555 1a68 991F      		rol r25
 4556 1a6a 0A94      	2:	dec r0
 4557 1a6c 02F4      		brpl 1b
 4558 1a6e 8095      		com r24
 4559 1a70 8223      		and r24,r18
 4560 1a72 8083      		st Z,r24
 4561 1a74 50E0      		ldi r21,lo8(0)
 4562 1a76 37E0      		ldi r19,lo8(7)
 4563               	.L150:
 4564               	.LBB280:
 4565               	.LBB281:
 4566               	.LM334:
 4567               	/* #APP */
 4568               	 ;  45 "i2csw.c" 1
 4569 1a78 0000      		nop
 4570               	 ;  0 "" 2
 4571               	 ;  45 "i2csw.c" 1
 4572 1a7a 0000      		nop
 4573               	 ;  0 "" 2
 4574               	 ;  45 "i2csw.c" 1
 4575 1a7c 0000      		nop
 4576               	 ;  0 "" 2
 4577               	 ;  45 "i2csw.c" 1
 4578 1a7e 0000      		nop
 4579               	 ;  0 "" 2
 4580               	 ;  45 "i2csw.c" 1
 4581 1a80 0000      		nop
 4582               	 ;  0 "" 2
 4583               	 ;  45 "i2csw.c" 1
 4584 1a82 0000      		nop
 4585               	 ;  0 "" 2
 4586               	 ;  45 "i2csw.c" 1
 4587 1a84 0000      		nop
 4588               	 ;  0 "" 2
 4589               	 ;  45 "i2csw.c" 1
 4590 1a86 0000      		nop
 4591               	 ;  0 "" 2
 4592               	 ;  45 "i2csw.c" 1
 4593 1a88 0000      		nop
 4594               	 ;  0 "" 2
 4595               	/* #NOAPP */
 4596               	.LBE281:
 4597               	.LBE280:
 4598               	.LM335:
 4599 1a8a E985      		ldd r30,Y+9
 4600 1a8c FA85      		ldd r31,Y+10
 4601 1a8e 2081      		ld r18,Z
 4602 1a90 8D85      		ldd r24,Y+13
 4603 1a92 4B01      		movw r8,r22
 4604 1a94 00C0      		rjmp 2f
 4605 1a96 880C      	1:	lsl r8
 4606 1a98 991C      		rol r9
 4607 1a9a 8A95      	2:	dec r24
 4608 1a9c 02F4      		brpl 1b
 4609 1a9e 2829      		or r18,r8
 4610 1aa0 2083      		st Z,r18
 4611 1aa2 EF81      		ldd r30,Y+7
 4612 1aa4 F885      		ldd r31,Y+8
 4613 1aa6 2081      		ld r18,Z
 4614 1aa8 8D85      		ldd r24,Y+13
 4615 1aaa 4B01      		movw r8,r22
 4616 1aac 00C0      		rjmp 2f
 4617 1aae 880C      	1:	lsl r8
 4618 1ab0 991C      		rol r9
 4619 1ab2 8A95      	2:	dec r24
 4620 1ab4 02F4      		brpl 1b
 4621 1ab6 C401      		movw r24,r8
 4622 1ab8 8095      		com r24
 4623 1aba 8223      		and r24,r18
 4624 1abc 8083      		st Z,r24
 4625 1abe EB85      		ldd r30,Y+11
 4626 1ac0 FC85      		ldd r31,Y+12
 4627               	.L151:
 4628 1ac2 8081      		ld r24,Z
 4629 1ac4 2D85      		ldd r18,Y+13
 4630 1ac6 90E0      		ldi r25,lo8(0)
 4631               	.LVL49:
 4632 1ac8 00C0      		rjmp 2f
 4633 1aca 9595      	1:	asr r25
 4634 1acc 8795      		ror r24
 4635 1ace 2A95      	2:	dec r18
 4636 1ad0 02F4      		brpl 1b
 4637 1ad2 80FF      		sbrs r24,0
 4638 1ad4 00C0      		rjmp .L151
 4639 1ad6 EF81      		ldd r30,Y+7
 4640 1ad8 F885      		ldd r31,Y+8
 4641 1ada 2081      		ld r18,Z
 4642 1adc 8D85      		ldd r24,Y+13
 4643 1ade 4B01      		movw r8,r22
 4644 1ae0 00C0      		rjmp 2f
 4645 1ae2 880C      	1:	lsl r8
 4646 1ae4 991C      		rol r9
 4647 1ae6 8A95      	2:	dec r24
 4648 1ae8 02F4      		brpl 1b
 4649 1aea 2829      		or r18,r8
 4650 1aec 2083      		st Z,r18
 4651               	.LM336:
 4652 1aee EC81      		ldd r30,Y+4
 4653 1af0 FD81      		ldd r31,Y+5
 4654 1af2 2081      		ld r18,Z
 4655               	.LM337:
 4656 1af4 550F      		lsl r21
 4657               	.LM338:
 4658 1af6 CB01      		movw r24,r22
 4659 1af8 0E80      		ldd r0,Y+6
 4660 1afa 00C0      		rjmp 2f
 4661 1afc 880F      	1:	lsl r24
 4662 1afe 991F      		rol r25
 4663 1b00 0A94      	2:	dec r0
 4664 1b02 02F4      		brpl 1b
 4665 1b04 2823      		and r18,r24
 4666 1b06 01F0      		breq .L152
 4667 1b08 5160      		ori r21,lo8(1)
 4668               	.L152:
 4669               	.LBB278:
 4670               	.LBB279:
 4671               	.LM339:
 4672               	/* #APP */
 4673               	 ;  45 "i2csw.c" 1
 4674 1b0a 0000      		nop
 4675               	 ;  0 "" 2
 4676               	 ;  45 "i2csw.c" 1
 4677 1b0c 0000      		nop
 4678               	 ;  0 "" 2
 4679               	 ;  45 "i2csw.c" 1
 4680 1b0e 0000      		nop
 4681               	 ;  0 "" 2
 4682               	 ;  45 "i2csw.c" 1
 4683 1b10 0000      		nop
 4684               	 ;  0 "" 2
 4685               	 ;  45 "i2csw.c" 1
 4686 1b12 0000      		nop
 4687               	 ;  0 "" 2
 4688               	 ;  45 "i2csw.c" 1
 4689 1b14 0000      		nop
 4690               	 ;  0 "" 2
 4691               	 ;  45 "i2csw.c" 1
 4692 1b16 0000      		nop
 4693               	 ;  0 "" 2
 4694               	 ;  45 "i2csw.c" 1
 4695 1b18 0000      		nop
 4696               	 ;  0 "" 2
 4697               	 ;  45 "i2csw.c" 1
 4698 1b1a 0000      		nop
 4699               	 ;  0 "" 2
 4700               	/* #NOAPP */
 4701               	.LBE279:
 4702               	.LBE278:
 4703               	.LM340:
 4704 1b1c E985      		ldd r30,Y+9
 4705 1b1e FA85      		ldd r31,Y+10
 4706 1b20 2081      		ld r18,Z
 4707 1b22 8D85      		ldd r24,Y+13
 4708 1b24 4B01      		movw r8,r22
 4709 1b26 00C0      		rjmp 2f
 4710 1b28 880C      	1:	lsl r8
 4711 1b2a 991C      		rol r9
 4712 1b2c 8A95      	2:	dec r24
 4713 1b2e 02F4      		brpl 1b
 4714 1b30 C401      		movw r24,r8
 4715 1b32 8095      		com r24
 4716 1b34 8223      		and r24,r18
 4717 1b36 8083      		st Z,r24
 4718 1b38 3150      		subi r19,1
 4719 1b3a 00F0      		brcs .+2
 4720 1b3c 00C0      		rjmp .L150
 4721               	.LM341:
 4722 1b3e E881      		ld r30,Y
 4723 1b40 F981      		ldd r31,Y+1
 4724 1b42 2081      		ld r18,Z
 4725 1b44 C801      		movw r24,r16
 4726 1b46 0E80      		ldd r0,Y+6
 4727 1b48 00C0      		rjmp 2f
 4728 1b4a 880F      	1:	lsl r24
 4729 1b4c 991F      		rol r25
 4730 1b4e 0A94      	2:	dec r0
 4731 1b50 02F4      		brpl 1b
 4732 1b52 282B      		or r18,r24
 4733 1b54 2083      		st Z,r18
 4734               	.LM342:
 4735 1b56 AE15      		cp r26,r14
 4736 1b58 BF05      		cpc r27,r15
 4737 1b5a 01F0      		breq .+2
 4738 1b5c 00C0      		rjmp .L154
 4739               	.LM343:
 4740 1b5e EA81      		ldd r30,Y+2
 4741 1b60 FB81      		ldd r31,Y+3
 4742 1b62 2081      		ld r18,Z
 4743 1b64 C801      		movw r24,r16
 4744 1b66 0E80      		ldd r0,Y+6
 4745 1b68 00C0      		rjmp 2f
 4746 1b6a 880F      	1:	lsl r24
 4747 1b6c 991F      		rol r25
 4748 1b6e 0A94      	2:	dec r0
 4749 1b70 02F4      		brpl 1b
 4750 1b72 282B      		or r18,r24
 4751 1b74 2083      		st Z,r18
 4752               	.L155:
 4753               	.LBB276:
 4754               	.LBB277:
 4755               	.LM344:
 4756               	/* #APP */
 4757               	 ;  45 "i2csw.c" 1
 4758 1b76 0000      		nop
 4759               	 ;  0 "" 2
 4760               	 ;  45 "i2csw.c" 1
 4761 1b78 0000      		nop
 4762               	 ;  0 "" 2
 4763               	 ;  45 "i2csw.c" 1
 4764 1b7a 0000      		nop
 4765               	 ;  0 "" 2
 4766               	 ;  45 "i2csw.c" 1
 4767 1b7c 0000      		nop
 4768               	 ;  0 "" 2
 4769               	 ;  45 "i2csw.c" 1
 4770 1b7e 0000      		nop
 4771               	 ;  0 "" 2
 4772               	/* #NOAPP */
 4773               	.LBE277:
 4774               	.LBE276:
 4775               	.LM345:
 4776 1b80 E985      		ldd r30,Y+9
 4777 1b82 FA85      		ldd r31,Y+10
 4778 1b84 2081      		ld r18,Z
 4779 1b86 8D85      		ldd r24,Y+13
 4780 1b88 4B01      		movw r8,r22
 4781 1b8a 00C0      		rjmp 2f
 4782 1b8c 880C      	1:	lsl r8
 4783 1b8e 991C      		rol r9
 4784 1b90 8A95      	2:	dec r24
 4785 1b92 02F4      		brpl 1b
 4786 1b94 2829      		or r18,r8
 4787 1b96 2083      		st Z,r18
 4788 1b98 EF81      		ldd r30,Y+7
 4789 1b9a F885      		ldd r31,Y+8
 4790 1b9c 2081      		ld r18,Z
 4791 1b9e 8D85      		ldd r24,Y+13
 4792 1ba0 4B01      		movw r8,r22
 4793 1ba2 00C0      		rjmp 2f
 4794 1ba4 880C      	1:	lsl r8
 4795 1ba6 991C      		rol r9
 4796 1ba8 8A95      	2:	dec r24
 4797 1baa 02F4      		brpl 1b
 4798 1bac C401      		movw r24,r8
 4799 1bae 8095      		com r24
 4800 1bb0 8223      		and r24,r18
 4801 1bb2 8083      		st Z,r24
 4802 1bb4 EB85      		ldd r30,Y+11
 4803 1bb6 FC85      		ldd r31,Y+12
 4804               	.L156:
 4805 1bb8 8081      		ld r24,Z
 4806 1bba 2D85      		ldd r18,Y+13
 4807 1bbc 90E0      		ldi r25,lo8(0)
 4808 1bbe 00C0      		rjmp 2f
 4809 1bc0 9595      	1:	asr r25
 4810 1bc2 8795      		ror r24
 4811 1bc4 2A95      	2:	dec r18
 4812 1bc6 02F4      		brpl 1b
 4813 1bc8 80FF      		sbrs r24,0
 4814 1bca 00C0      		rjmp .L156
 4815 1bcc EF81      		ldd r30,Y+7
 4816 1bce F885      		ldd r31,Y+8
 4817 1bd0 2081      		ld r18,Z
 4818 1bd2 8D85      		ldd r24,Y+13
 4819 1bd4 4B01      		movw r8,r22
 4820 1bd6 00C0      		rjmp 2f
 4821 1bd8 880C      	1:	lsl r8
 4822 1bda 991C      		rol r9
 4823 1bdc 8A95      	2:	dec r24
 4824 1bde 02F4      		brpl 1b
 4825 1be0 2829      		or r18,r8
 4826 1be2 2083      		st Z,r18
 4827               	.LBB274:
 4828               	.LBB275:
 4829               	.LM346:
 4830               	/* #APP */
 4831               	 ;  45 "i2csw.c" 1
 4832 1be4 0000      		nop
 4833               	 ;  0 "" 2
 4834               	 ;  45 "i2csw.c" 1
 4835 1be6 0000      		nop
 4836               	 ;  0 "" 2
 4837               	 ;  45 "i2csw.c" 1
 4838 1be8 0000      		nop
 4839               	 ;  0 "" 2
 4840               	 ;  45 "i2csw.c" 1
 4841 1bea 0000      		nop
 4842               	 ;  0 "" 2
 4843               	 ;  45 "i2csw.c" 1
 4844 1bec 0000      		nop
 4845               	 ;  0 "" 2
 4846               	 ;  45 "i2csw.c" 1
 4847 1bee 0000      		nop
 4848               	 ;  0 "" 2
 4849               	 ;  45 "i2csw.c" 1
 4850 1bf0 0000      		nop
 4851               	 ;  0 "" 2
 4852               	 ;  45 "i2csw.c" 1
 4853 1bf2 0000      		nop
 4854               	 ;  0 "" 2
 4855               	 ;  45 "i2csw.c" 1
 4856 1bf4 0000      		nop
 4857               	 ;  0 "" 2
 4858               	/* #NOAPP */
 4859               	.LBE275:
 4860               	.LBE274:
 4861               	.LM347:
 4862 1bf6 E985      		ldd r30,Y+9
 4863 1bf8 FA85      		ldd r31,Y+10
 4864 1bfa 2081      		ld r18,Z
 4865 1bfc 8D85      		ldd r24,Y+13
 4866 1bfe 4B01      		movw r8,r22
 4867 1c00 00C0      		rjmp 2f
 4868 1c02 880C      	1:	lsl r8
 4869 1c04 991C      		rol r9
 4870 1c06 8A95      	2:	dec r24
 4871 1c08 02F4      		brpl 1b
 4872 1c0a C401      		movw r24,r8
 4873 1c0c 8095      		com r24
 4874 1c0e 8223      		and r24,r18
 4875 1c10 8083      		st Z,r24
 4876               	.LM348:
 4877 1c12 EA81      		ldd r30,Y+2
 4878 1c14 FB81      		ldd r31,Y+3
 4879 1c16 2081      		ld r18,Z
 4880 1c18 CB01      		movw r24,r22
 4881 1c1a 0E80      		ldd r0,Y+6
 4882 1c1c 00C0      		rjmp 2f
 4883 1c1e 880F      	1:	lsl r24
 4884 1c20 991F      		rol r25
 4885 1c22 0A94      	2:	dec r0
 4886 1c24 02F4      		brpl 1b
 4887 1c26 282B      		or r18,r24
 4888 1c28 2083      		st Z,r18
 4889               	.LBE272:
 4890               	.LBE283:
 4891               	.LM349:
 4892 1c2a 5C93      		st X,r21
 4893               	.LM350:
 4894 1c2c AC15      		cp r26,r12
 4895 1c2e BD05      		cpc r27,r13
 4896 1c30 01F4      		brne .+2
 4897 1c32 00C0      		rjmp .L147
 4898               	.LM351:
 4899 1c34 1196      		adiw r26,1
 4900 1c36 00C0      		rjmp .L157
 4901               	.LVL50:
 4902               	.L139:
 4903               	.LBB284:
 4904               	.LBB270:
 4905               	.LM352:
 4906 1c38 EA81      		ldd r30,Y+2
 4907 1c3a FB81      		ldd r31,Y+3
 4908 1c3c 2081      		ld r18,Z
 4909 1c3e CB01      		movw r24,r22
 4910 1c40 0E80      		ldd r0,Y+6
 4911 1c42 00C0      		rjmp 2f
 4912 1c44 880F      	1:	lsl r24
 4913 1c46 991F      		rol r25
 4914 1c48 0A94      	2:	dec r0
 4915 1c4a 02F4      		brpl 1b
 4916 1c4c 8095      		com r24
 4917 1c4e 8223      		and r24,r18
 4918 1c50 8083      		st Z,r24
 4919 1c52 00C0      		rjmp .L140
 4920               	.LVL51:
 4921               	.L154:
 4922               	.LBE270:
 4923               	.LBE284:
 4924               	.LBB285:
 4925               	.LBB282:
 4926               	.LM353:
 4927 1c54 EA81      		ldd r30,Y+2
 4928 1c56 FB81      		ldd r31,Y+3
 4929 1c58 2081      		ld r18,Z
 4930 1c5a C801      		movw r24,r16
 4931 1c5c 0E80      		ldd r0,Y+6
 4932 1c5e 00C0      		rjmp 2f
 4933 1c60 880F      	1:	lsl r24
 4934 1c62 991F      		rol r25
 4935 1c64 0A94      	2:	dec r0
 4936 1c66 02F4      		brpl 1b
 4937 1c68 8095      		com r24
 4938 1c6a 8223      		and r24,r18
 4939 1c6c 8083      		st Z,r24
 4940 1c6e 00C0      		rjmp .L155
 4941               	.LVL52:
 4942               	.L145:
 4943               	.LBE282:
 4944               	.LBE285:
 4945               	.LM354:
 4946 1c70 EA81      		ldd r30,Y+2
 4947 1c72 FB81      		ldd r31,Y+3
 4948 1c74 2081      		ld r18,Z
 4949 1c76 CB01      		movw r24,r22
 4950 1c78 0E80      		ldd r0,Y+6
 4951 1c7a 00C0      		rjmp 2f
 4952 1c7c 880F      	1:	lsl r24
 4953 1c7e 991F      		rol r25
 4954 1c80 0A94      	2:	dec r0
 4955 1c82 02F4      		brpl 1b
 4956 1c84 8095      		com r24
 4957 1c86 8223      		and r24,r18
 4958 1c88 8083      		st Z,r24
 4959               	.LBB286:
 4960               	.LBB287:
 4961               	.LM355:
 4962               	/* #APP */
 4963               	 ;  45 "i2csw.c" 1
 4964 1c8a 0000      		nop
 4965               	 ;  0 "" 2
 4966               	 ;  45 "i2csw.c" 1
 4967 1c8c 0000      		nop
 4968               	 ;  0 "" 2
 4969               	 ;  45 "i2csw.c" 1
 4970 1c8e 0000      		nop
 4971               	 ;  0 "" 2
 4972               	 ;  45 "i2csw.c" 1
 4973 1c90 0000      		nop
 4974               	 ;  0 "" 2
 4975               	 ;  45 "i2csw.c" 1
 4976 1c92 0000      		nop
 4977               	 ;  0 "" 2
 4978               	 ;  45 "i2csw.c" 1
 4979 1c94 0000      		nop
 4980               	 ;  0 "" 2
 4981               	 ;  45 "i2csw.c" 1
 4982 1c96 0000      		nop
 4983               	 ;  0 "" 2
 4984               	 ;  45 "i2csw.c" 1
 4985 1c98 0000      		nop
 4986               	 ;  0 "" 2
 4987               	 ;  45 "i2csw.c" 1
 4988 1c9a 0000      		nop
 4989               	 ;  0 "" 2
 4990               	/* #NOAPP */
 4991               	.LBE287:
 4992               	.LBE286:
 4993               	.LM356:
 4994 1c9c E985      		ldd r30,Y+9
 4995 1c9e FA85      		ldd r31,Y+10
 4996 1ca0 2081      		ld r18,Z
 4997 1ca2 8D85      		ldd r24,Y+13
 4998 1ca4 AB01      		movw r20,r22
 4999 1ca6 00C0      		rjmp 2f
 5000 1ca8 440F      	1:	lsl r20
 5001 1caa 551F      		rol r21
 5002 1cac 8A95      	2:	dec r24
 5003 1cae 02F4      		brpl 1b
 5004 1cb0 242B      		or r18,r20
 5005 1cb2 2083      		st Z,r18
 5006 1cb4 EF81      		ldd r30,Y+7
 5007 1cb6 F885      		ldd r31,Y+8
 5008 1cb8 9081      		ld r25,Z
 5009 1cba 8D85      		ldd r24,Y+13
 5010 1cbc 00C0      		rjmp 2f
 5011 1cbe 660F      	1:	lsl r22
 5012 1cc0 771F      		rol r23
 5013 1cc2 8A95      	2:	dec r24
 5014 1cc4 02F4      		brpl 1b
 5015 1cc6 862F      		mov r24,r22
 5016 1cc8 8095      		com r24
 5017 1cca 8923      		and r24,r25
 5018 1ccc 8083      		st Z,r24
 5019 1cce EB85      		ldd r30,Y+11
 5020 1cd0 FC85      		ldd r31,Y+12
 5021               	.L148:
 5022 1cd2 8081      		ld r24,Z
 5023 1cd4 2D85      		ldd r18,Y+13
 5024 1cd6 90E0      		ldi r25,lo8(0)
 5025 1cd8 00C0      		rjmp 2f
 5026 1cda 9595      	1:	asr r25
 5027 1cdc 8795      		ror r24
 5028 1cde 2A95      	2:	dec r18
 5029 1ce0 02F4      		brpl 1b
 5030 1ce2 80FF      		sbrs r24,0
 5031 1ce4 00C0      		rjmp .L148
 5032 1ce6 EF81      		ldd r30,Y+7
 5033 1ce8 F885      		ldd r31,Y+8
 5034 1cea 2081      		ld r18,Z
 5035 1cec 8D85      		ldd r24,Y+13
 5036 1cee 41E0      		ldi r20,lo8(1)
 5037 1cf0 50E0      		ldi r21,hi8(1)
 5038 1cf2 BA01      		movw r22,r20
 5039 1cf4 00C0      		rjmp 2f
 5040 1cf6 660F      	1:	lsl r22
 5041 1cf8 771F      		rol r23
 5042 1cfa 8A95      	2:	dec r24
 5043 1cfc 02F4      		brpl 1b
 5044 1cfe 262B      		or r18,r22
 5045 1d00 2083      		st Z,r18
 5046               	.LBB288:
 5047               	.LBB289:
 5048               	.LM357:
 5049               	/* #APP */
 5050               	 ;  45 "i2csw.c" 1
 5051 1d02 0000      		nop
 5052               	 ;  0 "" 2
 5053               	 ;  45 "i2csw.c" 1
 5054 1d04 0000      		nop
 5055               	 ;  0 "" 2
 5056               	 ;  45 "i2csw.c" 1
 5057 1d06 0000      		nop
 5058               	 ;  0 "" 2
 5059               	 ;  45 "i2csw.c" 1
 5060 1d08 0000      		nop
 5061               	 ;  0 "" 2
 5062               	 ;  45 "i2csw.c" 1
 5063 1d0a 0000      		nop
 5064               	 ;  0 "" 2
 5065               	/* #NOAPP */
 5066               	.LBE289:
 5067               	.LBE288:
 5068               	.LM358:
 5069 1d0c EA81      		ldd r30,Y+2
 5070 1d0e FB81      		ldd r31,Y+3
 5071 1d10 8081      		ld r24,Z
 5072 1d12 0E80      		ldd r0,Y+6
 5073 1d14 00C0      		rjmp 2f
 5074 1d16 440F      	1:	lsl r20
 5075 1d18 551F      		rol r21
 5076 1d1a 0A94      	2:	dec r0
 5077 1d1c 02F4      		brpl 1b
 5078 1d1e 842B      		or r24,r20
 5079 1d20 8083      		st Z,r24
 5080               	.LM359:
 5081 1d22 00D0      		rcall .
 5082 1d24 00D0      		rcall .
 5083 1d26 EDB7      		in r30,__SP_L__
 5084 1d28 FEB7      		in r31,__SP_H__
 5085 1d2a 3196      		adiw r30,1
 5086 1d2c 80E0      		ldi r24,lo8(.LC3)
 5087 1d2e 90E0      		ldi r25,hi8(.LC3)
 5088 1d30 ADB7      		in r26,__SP_L__
 5089 1d32 BEB7      		in r27,__SP_H__
 5090 1d34 1296      		adiw r26,1+1
 5091 1d36 9C93      		st X,r25
 5092 1d38 8E93      		st -X,r24
 5093 1d3a 1197      		sbiw r26,1
 5094 1d3c F282      		std Z+2,r15
 5095 1d3e 1382      		std Z+3,__zero_reg__
 5096 1d40 0E94 0000 		call printf
 5097 1d44 0F90      		pop __tmp_reg__
 5098 1d46 0F90      		pop __tmp_reg__
 5099 1d48 0F90      		pop __tmp_reg__
 5100 1d4a 0F90      		pop __tmp_reg__
 5101               	.LVL53:
 5102               	.L149:
 5103               	.LM360:
 5104 1d4c 8B2D      		mov r24,r11
 5105               	/* epilogue start */
 5106 1d4e DF91      		pop r29
 5107 1d50 CF91      		pop r28
 5108               	.LVL54:
 5109 1d52 1F91      		pop r17
 5110 1d54 0F91      		pop r16
 5111 1d56 FF90      		pop r15
 5112               	.LVL55:
 5113 1d58 EF90      		pop r14
 5114               	.LVL56:
 5115 1d5a DF90      		pop r13
 5116 1d5c CF90      		pop r12
 5117 1d5e BF90      		pop r11
 5118               	.LVL57:
 5119 1d60 AF90      		pop r10
 5120               	.LVL58:
 5121 1d62 9F90      		pop r9
 5122 1d64 8F90      		pop r8
 5123 1d66 0895      		ret
 5124               	.LVL59:
 5125               	.L147:
 5126               	.LM361:
 5127 1d68 EA81      		ldd r30,Y+2
 5128 1d6a FB81      		ldd r31,Y+3
 5129 1d6c 4081      		ld r20,Z
 5130 1d6e 21E0      		ldi r18,lo8(1)
 5131 1d70 30E0      		ldi r19,hi8(1)
 5132 1d72 C901      		movw r24,r18
 5133 1d74 0E80      		ldd r0,Y+6
 5134 1d76 00C0      		rjmp 2f
 5135 1d78 880F      	1:	lsl r24
 5136 1d7a 991F      		rol r25
 5137 1d7c 0A94      	2:	dec r0
 5138 1d7e 02F4      		brpl 1b
 5139 1d80 8095      		com r24
 5140 1d82 8423      		and r24,r20
 5141 1d84 8083      		st Z,r24
 5142               	.LBB290:
 5143               	.LBB291:
 5144               	.LM362:
 5145               	/* #APP */
 5146               	 ;  45 "i2csw.c" 1
 5147 1d86 0000      		nop
 5148               	 ;  0 "" 2
 5149               	 ;  45 "i2csw.c" 1
 5150 1d88 0000      		nop
 5151               	 ;  0 "" 2
 5152               	 ;  45 "i2csw.c" 1
 5153 1d8a 0000      		nop
 5154               	 ;  0 "" 2
 5155               	 ;  45 "i2csw.c" 1
 5156 1d8c 0000      		nop
 5157               	 ;  0 "" 2
 5158               	 ;  45 "i2csw.c" 1
 5159 1d8e 0000      		nop
 5160               	 ;  0 "" 2
 5161               	 ;  45 "i2csw.c" 1
 5162 1d90 0000      		nop
 5163               	 ;  0 "" 2
 5164               	 ;  45 "i2csw.c" 1
 5165 1d92 0000      		nop
 5166               	 ;  0 "" 2
 5167               	 ;  45 "i2csw.c" 1
 5168 1d94 0000      		nop
 5169               	 ;  0 "" 2
 5170               	 ;  45 "i2csw.c" 1
 5171 1d96 0000      		nop
 5172               	 ;  0 "" 2
 5173               	/* #NOAPP */
 5174               	.LBE291:
 5175               	.LBE290:
 5176               	.LM363:
 5177 1d98 E985      		ldd r30,Y+9
 5178 1d9a FA85      		ldd r31,Y+10
 5179 1d9c 4081      		ld r20,Z
 5180 1d9e 8D85      		ldd r24,Y+13
 5181 1da0 B901      		movw r22,r18
 5182 1da2 00C0      		rjmp 2f
 5183 1da4 660F      	1:	lsl r22
 5184 1da6 771F      		rol r23
 5185 1da8 8A95      	2:	dec r24
 5186 1daa 02F4      		brpl 1b
 5187 1dac 462B      		or r20,r22
 5188 1dae 4083      		st Z,r20
 5189 1db0 EF81      		ldd r30,Y+7
 5190 1db2 F885      		ldd r31,Y+8
 5191 1db4 9081      		ld r25,Z
 5192 1db6 8D85      		ldd r24,Y+13
 5193 1db8 00C0      		rjmp 2f
 5194 1dba 220F      	1:	lsl r18
 5195 1dbc 331F      		rol r19
 5196 1dbe 8A95      	2:	dec r24
 5197 1dc0 02F4      		brpl 1b
 5198 1dc2 2095      		com r18
 5199 1dc4 2923      		and r18,r25
 5200 1dc6 2083      		st Z,r18
 5201 1dc8 EB85      		ldd r30,Y+11
 5202 1dca FC85      		ldd r31,Y+12
 5203               	.L158:
 5204 1dcc 8081      		ld r24,Z
 5205 1dce 2D85      		ldd r18,Y+13
 5206 1dd0 90E0      		ldi r25,lo8(0)
 5207 1dd2 00C0      		rjmp 2f
 5208 1dd4 9595      	1:	asr r25
 5209 1dd6 8795      		ror r24
 5210 1dd8 2A95      	2:	dec r18
 5211 1dda 02F4      		brpl 1b
 5212 1ddc 80FF      		sbrs r24,0
 5213 1dde 00C0      		rjmp .L158
 5214 1de0 EF81      		ldd r30,Y+7
 5215 1de2 F885      		ldd r31,Y+8
 5216 1de4 2081      		ld r18,Z
 5217 1de6 8D85      		ldd r24,Y+13
 5218 1de8 41E0      		ldi r20,lo8(1)
 5219 1dea 50E0      		ldi r21,hi8(1)
 5220 1dec DA01      		movw r26,r20
 5221               	.LVL60:
 5222 1dee 00C0      		rjmp 2f
 5223 1df0 AA0F      	1:	lsl r26
 5224 1df2 BB1F      		rol r27
 5225 1df4 8A95      	2:	dec r24
 5226 1df6 02F4      		brpl 1b
 5227 1df8 2A2B      		or r18,r26
 5228 1dfa 2083      		st Z,r18
 5229               	.LBB292:
 5230               	.LBB293:
 5231               	.LM364:
 5232               	/* #APP */
 5233               	 ;  45 "i2csw.c" 1
 5234 1dfc 0000      		nop
 5235               	 ;  0 "" 2
 5236               	 ;  45 "i2csw.c" 1
 5237 1dfe 0000      		nop
 5238               	 ;  0 "" 2
 5239               	 ;  45 "i2csw.c" 1
 5240 1e00 0000      		nop
 5241               	 ;  0 "" 2
 5242               	 ;  45 "i2csw.c" 1
 5243 1e02 0000      		nop
 5244               	 ;  0 "" 2
 5245               	 ;  45 "i2csw.c" 1
 5246 1e04 0000      		nop
 5247               	 ;  0 "" 2
 5248               	/* #NOAPP */
 5249               	.LBE293:
 5250               	.LBE292:
 5251               	.LM365:
 5252 1e06 EA81      		ldd r30,Y+2
 5253 1e08 FB81      		ldd r31,Y+3
 5254 1e0a 8081      		ld r24,Z
 5255 1e0c 0E80      		ldd r0,Y+6
 5256 1e0e 00C0      		rjmp 2f
 5257 1e10 440F      	1:	lsl r20
 5258 1e12 551F      		rol r21
 5259 1e14 0A94      	2:	dec r0
 5260 1e16 02F4      		brpl 1b
 5261 1e18 842B      		or r24,r20
 5262 1e1a 8083      		st Z,r24
 5263 1e1c 00C0      		rjmp .L149
 5264               	.LFE13:
 5266               		.data
 5267               	.LC6:
 5268 0091 7265 7472 		.string	"retry again\n\r"
 5268      7920 6167 
 5268      6169 6E0A 
 5268      0D00 
 5269               	.LC7:
 5270 009f 7773 2D3E 		.string	"ws->pkt_in "
 5270      706B 745F 
 5270      696E 2000 
 5271               		.text
 5272               	.global	i2c_master_read
 5274               	i2c_master_read:
 5275               	.LFB16:
 5276               	.LM366:
 5277               	.LVL61:
 5278 1e1e EF92      		push r14
 5279 1e20 FF92      		push r15
 5280 1e22 1F93      		push r17
 5281 1e24 CF93      		push r28
 5282 1e26 DF93      		push r29
 5283               	/* prologue: function */
 5284               	/* frame size = 0 */
 5285 1e28 EC01      		movw r28,r24
 5286               	.LM367:
 5287 1e2a 9C01      		movw r18,r24
 5288 1e2c 2C5C      		subi r18,lo8(-(52))
 5289 1e2e 3F4F      		sbci r19,hi8(-(52))
 5290 1e30 8F89      		ldd r24,Y+23
 5291 1e32 988D      		ldd r25,Y+24
 5292               	.LVL62:
 5293 1e34 6F85      		ldd r22,Y+15
 5294 1e36 4A81      		ldd r20,Y+2
 5295 1e38 0E94 0000 		call i2c_Read
 5296               	.LM368:
 5297 1e3c 8823      		tst r24
 5298 1e3e 01F4      		brne .+2
 5299 1e40 00C0      		rjmp .L175
 5300               	.LM369:
 5301 1e42 00D0      		rcall .
 5302 1e44 80E0      		ldi r24,lo8(.LC7)
 5303 1e46 90E0      		ldi r25,hi8(.LC7)
 5304 1e48 EDB7      		in r30,__SP_L__
 5305 1e4a FEB7      		in r31,__SP_H__
 5306 1e4c 9283      		std Z+2,r25
 5307 1e4e 8183      		std Z+1,r24
 5308 1e50 0E94 0000 		call printf
 5309               	.LM370:
 5310 1e54 0F90      		pop __tmp_reg__
 5311 1e56 0F90      		pop __tmp_reg__
 5312 1e58 8A81      		ldd r24,Y+2
 5313 1e5a 9B81      		ldd r25,Y+3
 5314 1e5c 892B      		or r24,r25
 5315 1e5e 01F0      		breq .L171
 5316 1e60 10E0      		ldi r17,lo8(0)
 5317               	.LVL63:
 5318 1e62 50E0      		ldi r21,lo8(.LC1)
 5319 1e64 E52E      		mov r14,r21
 5320 1e66 50E0      		ldi r21,hi8(.LC1)
 5321 1e68 F52E      		mov r15,r21
 5322 1e6a A0E0      		ldi r26,lo8(0)
 5323 1e6c B0E0      		ldi r27,hi8(0)
 5324               	.LVL64:
 5325               	.L172:
 5326               	.LM371:
 5327 1e6e 00D0      		rcall .
 5328 1e70 00D0      		rcall .
 5329 1e72 2DB7      		in r18,__SP_L__
 5330 1e74 3EB7      		in r19,__SP_H__
 5331 1e76 2F5F      		subi r18,lo8(-(1))
 5332 1e78 3F4F      		sbci r19,hi8(-(1))
 5333 1e7a EDB7      		in r30,__SP_L__
 5334 1e7c FEB7      		in r31,__SP_H__
 5335 1e7e F282      		std Z+2,r15
 5336 1e80 E182      		std Z+1,r14
 5337 1e82 AC0F      		add r26,r28
 5338 1e84 BD1F      		adc r27,r29
 5339               	.LVL65:
 5340 1e86 D496      		adiw r26,52
 5341 1e88 8C91      		ld r24,X
 5342 1e8a F901      		movw r30,r18
 5343 1e8c 8283      		std Z+2,r24
 5344 1e8e 1382      		std Z+3,__zero_reg__
 5345 1e90 0E94 0000 		call printf
 5346               	.LVL66:
 5347               	.LM372:
 5348 1e94 1F5F      		subi r17,lo8(-(1))
 5349               	.LVL67:
 5350 1e96 A12F      		mov r26,r17
 5351 1e98 B0E0      		ldi r27,lo8(0)
 5352               	.LVL68:
 5353 1e9a 0F90      		pop __tmp_reg__
 5354 1e9c 0F90      		pop __tmp_reg__
 5355 1e9e 0F90      		pop __tmp_reg__
 5356 1ea0 0F90      		pop __tmp_reg__
 5357 1ea2 8A81      		ldd r24,Y+2
 5358 1ea4 9B81      		ldd r25,Y+3
 5359 1ea6 A817      		cp r26,r24
 5360 1ea8 B907      		cpc r27,r25
 5361 1eaa 00F0      		brlo .L172
 5362               	.LVL69:
 5363               	.L171:
 5364               	.LM373:
 5365 1eac 00D0      		rcall .
 5366 1eae 80E0      		ldi r24,lo8(.LC2)
 5367 1eb0 90E0      		ldi r25,hi8(.LC2)
 5368 1eb2 EDB7      		in r30,__SP_L__
 5369 1eb4 FEB7      		in r31,__SP_H__
 5370 1eb6 9283      		std Z+2,r25
 5371 1eb8 8183      		std Z+1,r24
 5372 1eba 0E94 0000 		call printf
 5373               	.LVL70:
 5374               	.LM374:
 5375 1ebe 0F90      		pop __tmp_reg__
 5376 1ec0 0F90      		pop __tmp_reg__
 5377 1ec2 CE01      		movw r24,r28
 5378 1ec4 63E0      		ldi r22,lo8(3)
 5379 1ec6 70E0      		ldi r23,hi8(3)
 5380 1ec8 0E94 0000 		call ws_set_state
 5381               	/* epilogue start */
 5382               	.LM375:
 5383 1ecc DF91      		pop r29
 5384 1ece CF91      		pop r28
 5385               	.LVL71:
 5386 1ed0 1F91      		pop r17
 5387               	.LVL72:
 5388 1ed2 FF90      		pop r15
 5389 1ed4 EF90      		pop r14
 5390 1ed6 0895      		ret
 5391               	.LVL73:
 5392               	.L175:
 5393               	.LM376:
 5394 1ed8 00D0      		rcall .
 5395 1eda 80E0      		ldi r24,lo8(.LC6)
 5396 1edc 90E0      		ldi r25,hi8(.LC6)
 5397 1ede EDB7      		in r30,__SP_L__
 5398 1ee0 FEB7      		in r31,__SP_H__
 5399 1ee2 9283      		std Z+2,r25
 5400 1ee4 8183      		std Z+1,r24
 5401 1ee6 0E94 0000 		call printf
 5402               	.LM377:
 5403 1eea 8A8D      		ldd r24,Y+26
 5404 1eec 9B8D      		ldd r25,Y+27
 5405 1eee AC8D      		ldd r26,Y+28
 5406 1ef0 BD8D      		ldd r27,Y+29
 5407 1ef2 0196      		adiw r24,1
 5408 1ef4 A11D      		adc r26,__zero_reg__
 5409 1ef6 B11D      		adc r27,__zero_reg__
 5410 1ef8 8A8F      		std Y+26,r24
 5411 1efa 9B8F      		std Y+27,r25
 5412 1efc AC8F      		std Y+28,r26
 5413 1efe BD8F      		std Y+29,r27
 5414               	.LM378:
 5415 1f00 0F90      		pop __tmp_reg__
 5416 1f02 0F90      		pop __tmp_reg__
 5417 1f04 CE01      		movw r24,r28
 5418 1f06 68E0      		ldi r22,lo8(8)
 5419 1f08 70E0      		ldi r23,hi8(8)
 5420 1f0a 0E94 0000 		call ws_set_state
 5421               	.LM379:
 5422 1f0e DF91      		pop r29
 5423 1f10 CF91      		pop r28
 5424               	.LVL74:
 5425 1f12 1F91      		pop r17
 5426 1f14 FF90      		pop r15
 5427 1f16 EF90      		pop r14
 5428 1f18 0895      		ret
 5429               	.LFE16:
 5431               	.global	i2cMasterReceive
 5433               	i2cMasterReceive:
 5434               	.LFB11:
 5435               	.LM380:
 5436               	.LVL75:
 5437 1f1a 6F92      		push r6
 5438 1f1c 7F92      		push r7
 5439 1f1e 8F92      		push r8
 5440 1f20 9F92      		push r9
 5441 1f22 AF92      		push r10
 5442 1f24 BF92      		push r11
 5443 1f26 CF92      		push r12
 5444 1f28 DF92      		push r13
 5445 1f2a EF92      		push r14
 5446               	.LVL76:
 5447 1f2c FF92      		push r15
 5448 1f2e 0F93      		push r16
 5449               	.LVL77:
 5450 1f30 1F93      		push r17
 5451 1f32 CF93      		push r28
 5452 1f34 DF93      		push r29
 5453               	/* prologue: function */
 5454               	/* frame size = 0 */
 5455 1f36 DC01      		movw r26,r24
 5456 1f38 962E      		mov r9,r22
 5457 1f3a B42E      		mov r11,r20
 5458 1f3c 6901      		movw r12,r18
 5459 1f3e 802E      		mov r8,r16
 5460               	.LVL78:
 5461               	.LM381:
 5462 1f40 1996      		adiw r26,9
 5463 1f42 ED91      		ld r30,X+
 5464 1f44 FC91      		ld r31,X
 5465 1f46 1A97      		sbiw r26,9+1
 5466 1f48 4081      		ld r20,Z
 5467               	.LVL79:
 5468 1f4a 1D96      		adiw r26,13
 5469 1f4c 2C91      		ld r18,X
 5470 1f4e 1D97      		sbiw r26,13
 5471               	.LVL80:
 5472 1f50 81E0      		ldi r24,lo8(1)
 5473 1f52 90E0      		ldi r25,hi8(1)
 5474               	.LVL81:
 5475 1f54 3C01      		movw r6,r24
 5476 1f56 00C0      		rjmp 2f
 5477 1f58 660C      	1:	lsl r6
 5478 1f5a 771C      		rol r7
 5479 1f5c 2A95      	2:	dec r18
 5480 1f5e 02F4      		brpl 1b
 5481 1f60 4629      		or r20,r6
 5482 1f62 4083      		st Z,r20
 5483 1f64 1796      		adiw r26,7
 5484 1f66 ED91      		ld r30,X+
 5485 1f68 FC91      		ld r31,X
 5486 1f6a 1897      		sbiw r26,7+1
 5487 1f6c 3081      		ld r19,Z
 5488 1f6e 1D96      		adiw r26,13
 5489 1f70 2C91      		ld r18,X
 5490 1f72 1D97      		sbiw r26,13
 5491 1f74 00C0      		rjmp 2f
 5492 1f76 880F      	1:	lsl r24
 5493 1f78 991F      		rol r25
 5494 1f7a 2A95      	2:	dec r18
 5495 1f7c 02F4      		brpl 1b
 5496 1f7e 8095      		com r24
 5497 1f80 8323      		and r24,r19
 5498 1f82 8083      		st Z,r24
 5499 1f84 1B96      		adiw r26,11
 5500 1f86 ED91      		ld r30,X+
 5501 1f88 FC91      		ld r31,X
 5502 1f8a 1C97      		sbiw r26,11+1
 5503               	.LVL82:
 5504               	.L177:
 5505 1f8c 8081      		ld r24,Z
 5506 1f8e 1D96      		adiw r26,13
 5507 1f90 2C91      		ld r18,X
 5508 1f92 1D97      		sbiw r26,13
 5509 1f94 90E0      		ldi r25,lo8(0)
 5510 1f96 00C0      		rjmp 2f
 5511 1f98 9595      	1:	asr r25
 5512 1f9a 8795      		ror r24
 5513 1f9c 2A95      	2:	dec r18
 5514 1f9e 02F4      		brpl 1b
 5515 1fa0 80FF      		sbrs r24,0
 5516 1fa2 00C0      		rjmp .L177
 5517 1fa4 1796      		adiw r26,7
 5518 1fa6 ED91      		ld r30,X+
 5519 1fa8 FC91      		ld r31,X
 5520 1faa 1897      		sbiw r26,7+1
 5521 1fac 2081      		ld r18,Z
 5522 1fae 1D96      		adiw r26,13
 5523 1fb0 8C91      		ld r24,X
 5524 1fb2 1D97      		sbiw r26,13
 5525 1fb4 41E0      		ldi r20,lo8(1)
 5526 1fb6 50E0      		ldi r21,hi8(1)
 5527 1fb8 8A01      		movw r16,r20
 5528 1fba 00C0      		rjmp 2f
 5529 1fbc 000F      	1:	lsl r16
 5530 1fbe 111F      		rol r17
 5531 1fc0 8A95      	2:	dec r24
 5532 1fc2 02F4      		brpl 1b
 5533 1fc4 202B      		or r18,r16
 5534 1fc6 2083      		st Z,r18
 5535 1fc8 1296      		adiw r26,2
 5536 1fca ED91      		ld r30,X+
 5537 1fcc FC91      		ld r31,X
 5538 1fce 1397      		sbiw r26,2+1
 5539 1fd0 2081      		ld r18,Z
 5540 1fd2 CA01      		movw r24,r20
 5541 1fd4 1696      		adiw r26,6
 5542 1fd6 0C90      		ld r0,X
 5543 1fd8 1697      		sbiw r26,6
 5544 1fda 00C0      		rjmp 2f
 5545 1fdc 880F      	1:	lsl r24
 5546 1fde 991F      		rol r25
 5547 1fe0 0A94      	2:	dec r0
 5548 1fe2 02F4      		brpl 1b
 5549 1fe4 282B      		or r18,r24
 5550 1fe6 2083      		st Z,r18
 5551               	.LBB358:
 5552               	.LBB359:
 5553               	.LM382:
 5554               	/* #APP */
 5555               	 ;  45 "i2csw.c" 1
 5556 1fe8 0000      		nop
 5557               	 ;  0 "" 2
 5558               	 ;  45 "i2csw.c" 1
 5559 1fea 0000      		nop
 5560               	 ;  0 "" 2
 5561               	 ;  45 "i2csw.c" 1
 5562 1fec 0000      		nop
 5563               	 ;  0 "" 2
 5564               	 ;  45 "i2csw.c" 1
 5565 1fee 0000      		nop
 5566               	 ;  0 "" 2
 5567               	 ;  45 "i2csw.c" 1
 5568 1ff0 0000      		nop
 5569               	 ;  0 "" 2
 5570               	/* #NOAPP */
 5571               	.LBE359:
 5572               	.LBE358:
 5573               	.LM383:
 5574 1ff2 1296      		adiw r26,2
 5575 1ff4 ED91      		ld r30,X+
 5576 1ff6 FC91      		ld r31,X
 5577 1ff8 1397      		sbiw r26,2+1
 5578 1ffa 2081      		ld r18,Z
 5579 1ffc CA01      		movw r24,r20
 5580 1ffe 1696      		adiw r26,6
 5581 2000 0C90      		ld r0,X
 5582 2002 1697      		sbiw r26,6
 5583 2004 00C0      		rjmp 2f
 5584 2006 880F      	1:	lsl r24
 5585 2008 991F      		rol r25
 5586 200a 0A94      	2:	dec r0
 5587 200c 02F4      		brpl 1b
 5588 200e 8095      		com r24
 5589 2010 8223      		and r24,r18
 5590 2012 8083      		st Z,r24
 5591               	.LBB360:
 5592               	.LBB361:
 5593               	.LM384:
 5594               	/* #APP */
 5595               	 ;  45 "i2csw.c" 1
 5596 2014 0000      		nop
 5597               	 ;  0 "" 2
 5598               	 ;  45 "i2csw.c" 1
 5599 2016 0000      		nop
 5600               	 ;  0 "" 2
 5601               	 ;  45 "i2csw.c" 1
 5602 2018 0000      		nop
 5603               	 ;  0 "" 2
 5604               	 ;  45 "i2csw.c" 1
 5605 201a 0000      		nop
 5606               	 ;  0 "" 2
 5607               	 ;  45 "i2csw.c" 1
 5608 201c 0000      		nop
 5609               	 ;  0 "" 2
 5610               	/* #NOAPP */
 5611               	.LBE361:
 5612               	.LBE360:
 5613               	.LM385:
 5614 201e 1996      		adiw r26,9
 5615 2020 ED91      		ld r30,X+
 5616 2022 FC91      		ld r31,X
 5617 2024 1A97      		sbiw r26,9+1
 5618 2026 9081      		ld r25,Z
 5619 2028 1D96      		adiw r26,13
 5620 202a 8C91      		ld r24,X
 5621 202c 1D97      		sbiw r26,13
 5622 202e 00C0      		rjmp 2f
 5623 2030 440F      	1:	lsl r20
 5624 2032 551F      		rol r21
 5625 2034 8A95      	2:	dec r24
 5626 2036 02F4      		brpl 1b
 5627 2038 4095      		com r20
 5628 203a 4923      		and r20,r25
 5629 203c 4083      		st Z,r20
 5630 203e 892D      		mov r24,r9
 5631 2040 8E7F      		andi r24,lo8(-2)
 5632 2042 082F      		mov r16,r24
 5633 2044 10E0      		ldi r17,lo8(0)
 5634 2046 47E0      		ldi r20,lo8(7)
 5635 2048 50E0      		ldi r21,hi8(7)
 5636               	.LBB362:
 5637               	.LBB364:
 5638               	.LM386:
 5639 204a C1E0      		ldi r28,lo8(1)
 5640 204c D0E0      		ldi r29,hi8(1)
 5641               	.L181:
 5642               	.LBE364:
 5643               	.LM387:
 5644 204e C801      		movw r24,r16
 5645 2050 042E      		mov r0,r20
 5646 2052 00C0      		rjmp 2f
 5647 2054 9595      	1:	asr r25
 5648 2056 8795      		ror r24
 5649 2058 0A94      	2:	dec r0
 5650 205a 02F4      		brpl 1b
 5651 205c 80FF      		sbrs r24,0
 5652 205e 00C0      		rjmp .L178
 5653               	.LBB363:
 5654               	.LM388:
 5655 2060 1296      		adiw r26,2
 5656 2062 ED91      		ld r30,X+
 5657 2064 FC91      		ld r31,X
 5658 2066 1397      		sbiw r26,2+1
 5659 2068 2081      		ld r18,Z
 5660 206a CE01      		movw r24,r28
 5661 206c 1696      		adiw r26,6
 5662 206e 0C90      		ld r0,X
 5663 2070 1697      		sbiw r26,6
 5664 2072 00C0      		rjmp 2f
 5665 2074 880F      	1:	lsl r24
 5666 2076 991F      		rol r25
 5667 2078 0A94      	2:	dec r0
 5668 207a 02F4      		brpl 1b
 5669 207c 282B      		or r18,r24
 5670 207e 2083      		st Z,r18
 5671               	.L179:
 5672               	.LBB373:
 5673               	.LBB374:
 5674               	.LM389:
 5675               	/* #APP */
 5676               	 ;  45 "i2csw.c" 1
 5677 2080 0000      		nop
 5678               	 ;  0 "" 2
 5679               	 ;  45 "i2csw.c" 1
 5680 2082 0000      		nop
 5681               	 ;  0 "" 2
 5682               	 ;  45 "i2csw.c" 1
 5683 2084 0000      		nop
 5684               	 ;  0 "" 2
 5685               	 ;  45 "i2csw.c" 1
 5686 2086 0000      		nop
 5687               	 ;  0 "" 2
 5688               	 ;  45 "i2csw.c" 1
 5689 2088 0000      		nop
 5690               	 ;  0 "" 2
 5691               	/* #NOAPP */
 5692               	.LBE374:
 5693               	.LBE373:
 5694               	.LM390:
 5695 208a 1996      		adiw r26,9
 5696 208c ED91      		ld r30,X+
 5697 208e FC91      		ld r31,X
 5698 2090 1A97      		sbiw r26,9+1
 5699 2092 2081      		ld r18,Z
 5700 2094 1D96      		adiw r26,13
 5701 2096 8C91      		ld r24,X
 5702 2098 1D97      		sbiw r26,13
 5703 209a BE01      		movw r22,r28
 5704 209c 00C0      		rjmp 2f
 5705 209e 660F      	1:	lsl r22
 5706 20a0 771F      		rol r23
 5707 20a2 8A95      	2:	dec r24
 5708 20a4 02F4      		brpl 1b
 5709 20a6 262B      		or r18,r22
 5710 20a8 2083      		st Z,r18
 5711 20aa 1796      		adiw r26,7
 5712 20ac ED91      		ld r30,X+
 5713 20ae FC91      		ld r31,X
 5714 20b0 1897      		sbiw r26,7+1
 5715 20b2 2081      		ld r18,Z
 5716 20b4 1D96      		adiw r26,13
 5717 20b6 8C91      		ld r24,X
 5718 20b8 1D97      		sbiw r26,13
 5719 20ba 3E01      		movw r6,r28
 5720 20bc 00C0      		rjmp 2f
 5721 20be 660C      	1:	lsl r6
 5722 20c0 771C      		rol r7
 5723 20c2 8A95      	2:	dec r24
 5724 20c4 02F4      		brpl 1b
 5725 20c6 C301      		movw r24,r6
 5726 20c8 8095      		com r24
 5727 20ca 8223      		and r24,r18
 5728 20cc 8083      		st Z,r24
 5729 20ce 1B96      		adiw r26,11
 5730 20d0 ED91      		ld r30,X+
 5731 20d2 FC91      		ld r31,X
 5732 20d4 1C97      		sbiw r26,11+1
 5733               	.L180:
 5734 20d6 8081      		ld r24,Z
 5735 20d8 1D96      		adiw r26,13
 5736 20da 2C91      		ld r18,X
 5737 20dc 1D97      		sbiw r26,13
 5738 20de 90E0      		ldi r25,lo8(0)
 5739 20e0 00C0      		rjmp 2f
 5740 20e2 9595      	1:	asr r25
 5741 20e4 8795      		ror r24
 5742 20e6 2A95      	2:	dec r18
 5743 20e8 02F4      		brpl 1b
 5744 20ea 80FF      		sbrs r24,0
 5745 20ec 00C0      		rjmp .L180
 5746 20ee 1796      		adiw r26,7
 5747 20f0 ED91      		ld r30,X+
 5748 20f2 FC91      		ld r31,X
 5749 20f4 1897      		sbiw r26,7+1
 5750 20f6 2081      		ld r18,Z
 5751 20f8 1D96      		adiw r26,13
 5752 20fa 8C91      		ld r24,X
 5753 20fc 1D97      		sbiw r26,13
 5754 20fe 61E0      		ldi r22,lo8(1)
 5755 2100 70E0      		ldi r23,hi8(1)
 5756 2102 3E01      		movw r6,r28
 5757 2104 00C0      		rjmp 2f
 5758 2106 660C      	1:	lsl r6
 5759 2108 771C      		rol r7
 5760 210a 8A95      	2:	dec r24
 5761 210c 02F4      		brpl 1b
 5762 210e 2629      		or r18,r6
 5763 2110 2083      		st Z,r18
 5764               	.LBB371:
 5765               	.LBB372:
 5766               	.LM391:
 5767               	/* #APP */
 5768               	 ;  45 "i2csw.c" 1
 5769 2112 0000      		nop
 5770               	 ;  0 "" 2
 5771               	 ;  45 "i2csw.c" 1
 5772 2114 0000      		nop
 5773               	 ;  0 "" 2
 5774               	 ;  45 "i2csw.c" 1
 5775 2116 0000      		nop
 5776               	 ;  0 "" 2
 5777               	 ;  45 "i2csw.c" 1
 5778 2118 0000      		nop
 5779               	 ;  0 "" 2
 5780               	 ;  45 "i2csw.c" 1
 5781 211a 0000      		nop
 5782               	 ;  0 "" 2
 5783               	 ;  45 "i2csw.c" 1
 5784 211c 0000      		nop
 5785               	 ;  0 "" 2
 5786               	 ;  45 "i2csw.c" 1
 5787 211e 0000      		nop
 5788               	 ;  0 "" 2
 5789               	 ;  45 "i2csw.c" 1
 5790 2120 0000      		nop
 5791               	 ;  0 "" 2
 5792               	 ;  45 "i2csw.c" 1
 5793 2122 0000      		nop
 5794               	 ;  0 "" 2
 5795               	/* #NOAPP */
 5796               	.LBE372:
 5797               	.LBE371:
 5798               	.LM392:
 5799 2124 1996      		adiw r26,9
 5800 2126 ED91      		ld r30,X+
 5801 2128 FC91      		ld r31,X
 5802 212a 1A97      		sbiw r26,9+1
 5803 212c 2081      		ld r18,Z
 5804 212e 1D96      		adiw r26,13
 5805 2130 8C91      		ld r24,X
 5806 2132 1D97      		sbiw r26,13
 5807 2134 3E01      		movw r6,r28
 5808 2136 00C0      		rjmp 2f
 5809 2138 660C      	1:	lsl r6
 5810 213a 771C      		rol r7
 5811 213c 8A95      	2:	dec r24
 5812 213e 02F4      		brpl 1b
 5813 2140 C301      		movw r24,r6
 5814 2142 8095      		com r24
 5815 2144 8223      		and r24,r18
 5816 2146 8083      		st Z,r24
 5817 2148 4150      		subi r20,lo8(-(-1))
 5818 214a 5040      		sbci r21,hi8(-(-1))
 5819               	.LM393:
 5820 214c 2FEF      		ldi r18,hi8(-1)
 5821 214e 4F3F      		cpi r20,lo8(-1)
 5822 2150 5207      		cpc r21,r18
 5823 2152 01F0      		breq .+2
 5824 2154 00C0      		rjmp .L181
 5825               	.LM394:
 5826 2156 1296      		adiw r26,2
 5827 2158 ED91      		ld r30,X+
 5828 215a FC91      		ld r31,X
 5829 215c 1397      		sbiw r26,2+1
 5830 215e 2081      		ld r18,Z
 5831 2160 CB01      		movw r24,r22
 5832 2162 1696      		adiw r26,6
 5833 2164 0C90      		ld r0,X
 5834 2166 1697      		sbiw r26,6
 5835 2168 00C0      		rjmp 2f
 5836 216a 880F      	1:	lsl r24
 5837 216c 991F      		rol r25
 5838 216e 0A94      	2:	dec r0
 5839 2170 02F4      		brpl 1b
 5840 2172 8095      		com r24
 5841 2174 8223      		and r24,r18
 5842 2176 8083      		st Z,r24
 5843               	.LM395:
 5844 2178 ED91      		ld r30,X+
 5845 217a FC91      		ld r31,X
 5846 217c 1197      		sbiw r26,1
 5847 217e 2081      		ld r18,Z
 5848 2180 CB01      		movw r24,r22
 5849 2182 1696      		adiw r26,6
 5850 2184 0C90      		ld r0,X
 5851 2186 1697      		sbiw r26,6
 5852 2188 00C0      		rjmp 2f
 5853 218a 880F      	1:	lsl r24
 5854 218c 991F      		rol r25
 5855 218e 0A94      	2:	dec r0
 5856 2190 02F4      		brpl 1b
 5857 2192 8095      		com r24
 5858 2194 8223      		and r24,r18
 5859 2196 8083      		st Z,r24
 5860               	.LBB369:
 5861               	.LBB370:
 5862               	.LM396:
 5863               	/* #APP */
 5864               	 ;  45 "i2csw.c" 1
 5865 2198 0000      		nop
 5866               	 ;  0 "" 2
 5867               	 ;  45 "i2csw.c" 1
 5868 219a 0000      		nop
 5869               	 ;  0 "" 2
 5870               	 ;  45 "i2csw.c" 1
 5871 219c 0000      		nop
 5872               	 ;  0 "" 2
 5873               	 ;  45 "i2csw.c" 1
 5874 219e 0000      		nop
 5875               	 ;  0 "" 2
 5876               	 ;  45 "i2csw.c" 1
 5877 21a0 0000      		nop
 5878               	 ;  0 "" 2
 5879               	 ;  45 "i2csw.c" 1
 5880 21a2 0000      		nop
 5881               	 ;  0 "" 2
 5882               	 ;  45 "i2csw.c" 1
 5883 21a4 0000      		nop
 5884               	 ;  0 "" 2
 5885               	 ;  45 "i2csw.c" 1
 5886 21a6 0000      		nop
 5887               	 ;  0 "" 2
 5888               	/* #NOAPP */
 5889               	.LBE370:
 5890               	.LBE369:
 5891               	.LM397:
 5892 21a8 1996      		adiw r26,9
 5893 21aa ED91      		ld r30,X+
 5894 21ac FC91      		ld r31,X
 5895 21ae 1A97      		sbiw r26,9+1
 5896 21b0 2081      		ld r18,Z
 5897 21b2 1D96      		adiw r26,13
 5898 21b4 8C91      		ld r24,X
 5899 21b6 1D97      		sbiw r26,13
 5900 21b8 AB01      		movw r20,r22
 5901 21ba 00C0      		rjmp 2f
 5902 21bc 440F      	1:	lsl r20
 5903 21be 551F      		rol r21
 5904 21c0 8A95      	2:	dec r24
 5905 21c2 02F4      		brpl 1b
 5906 21c4 242B      		or r18,r20
 5907 21c6 2083      		st Z,r18
 5908 21c8 1796      		adiw r26,7
 5909 21ca ED91      		ld r30,X+
 5910 21cc FC91      		ld r31,X
 5911 21ce 1897      		sbiw r26,7+1
 5912 21d0 9081      		ld r25,Z
 5913 21d2 1D96      		adiw r26,13
 5914 21d4 8C91      		ld r24,X
 5915 21d6 1D97      		sbiw r26,13
 5916 21d8 00C0      		rjmp 2f
 5917 21da 660F      	1:	lsl r22
 5918 21dc 771F      		rol r23
 5919 21de 8A95      	2:	dec r24
 5920 21e0 02F4      		brpl 1b
 5921 21e2 862F      		mov r24,r22
 5922 21e4 8095      		com r24
 5923 21e6 8923      		and r24,r25
 5924 21e8 8083      		st Z,r24
 5925 21ea 1B96      		adiw r26,11
 5926 21ec ED91      		ld r30,X+
 5927 21ee FC91      		ld r31,X
 5928 21f0 1C97      		sbiw r26,11+1
 5929               	.L182:
 5930 21f2 8081      		ld r24,Z
 5931 21f4 1D96      		adiw r26,13
 5932 21f6 2C91      		ld r18,X
 5933 21f8 1D97      		sbiw r26,13
 5934 21fa 90E0      		ldi r25,lo8(0)
 5935 21fc 00C0      		rjmp 2f
 5936 21fe 9595      	1:	asr r25
 5937 2200 8795      		ror r24
 5938 2202 2A95      	2:	dec r18
 5939 2204 02F4      		brpl 1b
 5940 2206 80FF      		sbrs r24,0
 5941 2208 00C0      		rjmp .L182
 5942 220a 1796      		adiw r26,7
 5943 220c ED91      		ld r30,X+
 5944 220e FC91      		ld r31,X
 5945 2210 1897      		sbiw r26,7+1
 5946 2212 2081      		ld r18,Z
 5947 2214 1D96      		adiw r26,13
 5948 2216 8C91      		ld r24,X
 5949 2218 1D97      		sbiw r26,13
 5950 221a C1E0      		ldi r28,lo8(1)
 5951 221c D0E0      		ldi r29,hi8(1)
 5952 221e BE01      		movw r22,r28
 5953 2220 00C0      		rjmp 2f
 5954 2222 660F      	1:	lsl r22
 5955 2224 771F      		rol r23
 5956 2226 8A95      	2:	dec r24
 5957 2228 02F4      		brpl 1b
 5958 222a 262B      		or r18,r22
 5959 222c 2083      		st Z,r18
 5960               	.LM398:
 5961 222e 1496      		adiw r26,4
 5962 2230 ED91      		ld r30,X+
 5963 2232 FC91      		ld r31,X
 5964 2234 1597      		sbiw r26,4+1
 5965 2236 3081      		ld r19,Z
 5966 2238 1696      		adiw r26,6
 5967 223a 4C91      		ld r20,X
 5968 223c 1697      		sbiw r26,6
 5969               	.LBB367:
 5970               	.LBB368:
 5971               	.LM399:
 5972               	/* #APP */
 5973               	 ;  45 "i2csw.c" 1
 5974 223e 0000      		nop
 5975               	 ;  0 "" 2
 5976               	 ;  45 "i2csw.c" 1
 5977 2240 0000      		nop
 5978               	 ;  0 "" 2
 5979               	 ;  45 "i2csw.c" 1
 5980 2242 0000      		nop
 5981               	 ;  0 "" 2
 5982               	 ;  45 "i2csw.c" 1
 5983 2244 0000      		nop
 5984               	 ;  0 "" 2
 5985               	 ;  45 "i2csw.c" 1
 5986 2246 0000      		nop
 5987               	 ;  0 "" 2
 5988               	 ;  45 "i2csw.c" 1
 5989 2248 0000      		nop
 5990               	 ;  0 "" 2
 5991               	 ;  45 "i2csw.c" 1
 5992 224a 0000      		nop
 5993               	 ;  0 "" 2
 5994               	 ;  45 "i2csw.c" 1
 5995 224c 0000      		nop
 5996               	 ;  0 "" 2
 5997               	 ;  45 "i2csw.c" 1
 5998 224e 0000      		nop
 5999               	 ;  0 "" 2
 6000               	/* #NOAPP */
 6001               	.LBE368:
 6002               	.LBE367:
 6003               	.LM400:
 6004 2250 1996      		adiw r26,9
 6005 2252 ED91      		ld r30,X+
 6006 2254 FC91      		ld r31,X
 6007 2256 1A97      		sbiw r26,9+1
 6008 2258 2081      		ld r18,Z
 6009 225a 1D96      		adiw r26,13
 6010 225c 8C91      		ld r24,X
 6011 225e 1D97      		sbiw r26,13
 6012 2260 3E01      		movw r6,r28
 6013 2262 00C0      		rjmp 2f
 6014 2264 660C      	1:	lsl r6
 6015 2266 771C      		rol r7
 6016 2268 8A95      	2:	dec r24
 6017 226a 02F4      		brpl 1b
 6018 226c C301      		movw r24,r6
 6019 226e 8095      		com r24
 6020 2270 8223      		and r24,r18
 6021 2272 8083      		st Z,r24
 6022               	.LM401:
 6023 2274 ED91      		ld r30,X+
 6024 2276 FC91      		ld r31,X
 6025 2278 1197      		sbiw r26,1
 6026 227a 2081      		ld r18,Z
 6027 227c CE01      		movw r24,r28
 6028 227e 1696      		adiw r26,6
 6029 2280 0C90      		ld r0,X
 6030 2282 1697      		sbiw r26,6
 6031 2284 00C0      		rjmp 2f
 6032 2286 880F      	1:	lsl r24
 6033 2288 991F      		rol r25
 6034 228a 0A94      	2:	dec r0
 6035 228c 02F4      		brpl 1b
 6036 228e 282B      		or r18,r24
 6037 2290 2083      		st Z,r18
 6038               	.LBB365:
 6039               	.LBB366:
 6040               	.LM402:
 6041               	/* #APP */
 6042               	 ;  45 "i2csw.c" 1
 6043 2292 0000      		nop
 6044               	 ;  0 "" 2
 6045               	 ;  45 "i2csw.c" 1
 6046 2294 0000      		nop
 6047               	 ;  0 "" 2
 6048               	 ;  45 "i2csw.c" 1
 6049 2296 0000      		nop
 6050               	 ;  0 "" 2
 6051               	 ;  45 "i2csw.c" 1
 6052 2298 0000      		nop
 6053               	 ;  0 "" 2
 6054               	 ;  45 "i2csw.c" 1
 6055 229a 0000      		nop
 6056               	 ;  0 "" 2
 6057               	/* #NOAPP */
 6058               	.LBE366:
 6059               	.LBE365:
 6060               	.LM403:
 6061 229c AA24      		clr r10
 6062               	.LVL83:
 6063 229e 8E01      		movw r16,r28
 6064 22a0 00C0      		rjmp 2f
 6065 22a2 000F      	1:	lsl r16
 6066 22a4 111F      		rol r17
 6067 22a6 4A95      	2:	dec r20
 6068 22a8 02F4      		brpl 1b
 6069 22aa 3023      		and r19,r16
 6070 22ac 01F0      		breq .+2
 6071 22ae 00C0      		rjmp .L211
 6072 22b0 AA24      		clr r10
 6073 22b2 A394      		inc r10
 6074               	.LBE363:
 6075               	.LBE362:
 6076               	.LBB376:
 6077               	.LBB378:
 6078               	.LM404:
 6079 22b4 61E0      		ldi r22,lo8(1)
 6080 22b6 70E0      		ldi r23,hi8(1)
 6081 22b8 01E0      		ldi r16,lo8(1)
 6082 22ba 10E0      		ldi r17,hi8(1)
 6083               	.LBE378:
 6084               	.LBE376:
 6085               	.LM405:
 6086 22bc BB20      		tst r11
 6087 22be 01F4      		brne .+2
 6088 22c0 00C0      		rjmp .L229
 6089               	.L192:
 6090               	.LM406:
 6091 22c2 F601      		movw r30,r12
 6092 22c4 8081      		ld r24,Z
 6093 22c6 C82F      		mov r28,r24
 6094 22c8 D0E0      		ldi r29,lo8(0)
 6095 22ca 47E0      		ldi r20,lo8(7)
 6096 22cc 50E0      		ldi r21,hi8(7)
 6097               	.L190:
 6098               	.LBB390:
 6099               	.LM407:
 6100 22ce CE01      		movw r24,r28
 6101 22d0 042E      		mov r0,r20
 6102 22d2 00C0      		rjmp 2f
 6103 22d4 9595      	1:	asr r25
 6104 22d6 8795      		ror r24
 6105 22d8 0A94      	2:	dec r0
 6106 22da 02F4      		brpl 1b
 6107 22dc 80FF      		sbrs r24,0
 6108 22de 00C0      		rjmp .L187
 6109               	.LBB377:
 6110               	.LM408:
 6111 22e0 1296      		adiw r26,2
 6112 22e2 ED91      		ld r30,X+
 6113 22e4 FC91      		ld r31,X
 6114 22e6 1397      		sbiw r26,2+1
 6115 22e8 2081      		ld r18,Z
 6116 22ea CB01      		movw r24,r22
 6117 22ec 1696      		adiw r26,6
 6118 22ee 0C90      		ld r0,X
 6119 22f0 1697      		sbiw r26,6
 6120 22f2 00C0      		rjmp 2f
 6121 22f4 880F      	1:	lsl r24
 6122 22f6 991F      		rol r25
 6123 22f8 0A94      	2:	dec r0
 6124 22fa 02F4      		brpl 1b
 6125 22fc 282B      		or r18,r24
 6126 22fe 2083      		st Z,r18
 6127               	.L188:
 6128               	.LBB387:
 6129               	.LBB388:
 6130               	.LM409:
 6131               	/* #APP */
 6132               	 ;  45 "i2csw.c" 1
 6133 2300 0000      		nop
 6134               	 ;  0 "" 2
 6135               	 ;  45 "i2csw.c" 1
 6136 2302 0000      		nop
 6137               	 ;  0 "" 2
 6138               	 ;  45 "i2csw.c" 1
 6139 2304 0000      		nop
 6140               	 ;  0 "" 2
 6141               	 ;  45 "i2csw.c" 1
 6142 2306 0000      		nop
 6143               	 ;  0 "" 2
 6144               	 ;  45 "i2csw.c" 1
 6145 2308 0000      		nop
 6146               	 ;  0 "" 2
 6147               	/* #NOAPP */
 6148               	.LBE388:
 6149               	.LBE387:
 6150               	.LM410:
 6151 230a 1996      		adiw r26,9
 6152 230c ED91      		ld r30,X+
 6153 230e FC91      		ld r31,X
 6154 2310 1A97      		sbiw r26,9+1
 6155 2312 2081      		ld r18,Z
 6156 2314 1D96      		adiw r26,13
 6157 2316 8C91      		ld r24,X
 6158 2318 1D97      		sbiw r26,13
 6159 231a 3B01      		movw r6,r22
 6160 231c 00C0      		rjmp 2f
 6161 231e 660C      	1:	lsl r6
 6162 2320 771C      		rol r7
 6163 2322 8A95      	2:	dec r24
 6164 2324 02F4      		brpl 1b
 6165 2326 2629      		or r18,r6
 6166 2328 2083      		st Z,r18
 6167 232a 1796      		adiw r26,7
 6168 232c ED91      		ld r30,X+
 6169 232e FC91      		ld r31,X
 6170 2330 1897      		sbiw r26,7+1
 6171 2332 2081      		ld r18,Z
 6172 2334 1D96      		adiw r26,13
 6173 2336 8C91      		ld r24,X
 6174 2338 1D97      		sbiw r26,13
 6175 233a 3B01      		movw r6,r22
 6176 233c 00C0      		rjmp 2f
 6177 233e 660C      	1:	lsl r6
 6178 2340 771C      		rol r7
 6179 2342 8A95      	2:	dec r24
 6180 2344 02F4      		brpl 1b
 6181 2346 C301      		movw r24,r6
 6182 2348 8095      		com r24
 6183 234a 8223      		and r24,r18
 6184 234c 8083      		st Z,r24
 6185 234e 1B96      		adiw r26,11
 6186 2350 ED91      		ld r30,X+
 6187 2352 FC91      		ld r31,X
 6188 2354 1C97      		sbiw r26,11+1
 6189               	.L189:
 6190 2356 8081      		ld r24,Z
 6191 2358 1D96      		adiw r26,13
 6192 235a 2C91      		ld r18,X
 6193 235c 1D97      		sbiw r26,13
 6194 235e 90E0      		ldi r25,lo8(0)
 6195 2360 00C0      		rjmp 2f
 6196 2362 9595      	1:	asr r25
 6197 2364 8795      		ror r24
 6198 2366 2A95      	2:	dec r18
 6199 2368 02F4      		brpl 1b
 6200 236a 80FF      		sbrs r24,0
 6201 236c 00C0      		rjmp .L189
 6202 236e 1796      		adiw r26,7
 6203 2370 ED91      		ld r30,X+
 6204 2372 FC91      		ld r31,X
 6205 2374 1897      		sbiw r26,7+1
 6206 2376 2081      		ld r18,Z
 6207 2378 1D96      		adiw r26,13
 6208 237a 8C91      		ld r24,X
 6209 237c 1D97      		sbiw r26,13
 6210 237e 3B01      		movw r6,r22
 6211 2380 00C0      		rjmp 2f
 6212 2382 660C      	1:	lsl r6
 6213 2384 771C      		rol r7
 6214 2386 8A95      	2:	dec r24
 6215 2388 02F4      		brpl 1b
 6216 238a 2629      		or r18,r6
 6217 238c 2083      		st Z,r18
 6218               	.LBB385:
 6219               	.LBB386:
 6220               	.LM411:
 6221               	/* #APP */
 6222               	 ;  45 "i2csw.c" 1
 6223 238e 0000      		nop
 6224               	 ;  0 "" 2
 6225               	 ;  45 "i2csw.c" 1
 6226 2390 0000      		nop
 6227               	 ;  0 "" 2
 6228               	 ;  45 "i2csw.c" 1
 6229 2392 0000      		nop
 6230               	 ;  0 "" 2
 6231               	 ;  45 "i2csw.c" 1
 6232 2394 0000      		nop
 6233               	 ;  0 "" 2
 6234               	 ;  45 "i2csw.c" 1
 6235 2396 0000      		nop
 6236               	 ;  0 "" 2
 6237               	 ;  45 "i2csw.c" 1
 6238 2398 0000      		nop
 6239               	 ;  0 "" 2
 6240               	 ;  45 "i2csw.c" 1
 6241 239a 0000      		nop
 6242               	 ;  0 "" 2
 6243               	 ;  45 "i2csw.c" 1
 6244 239c 0000      		nop
 6245               	 ;  0 "" 2
 6246               	 ;  45 "i2csw.c" 1
 6247 239e 0000      		nop
 6248               	 ;  0 "" 2
 6249               	/* #NOAPP */
 6250               	.LBE386:
 6251               	.LBE385:
 6252               	.LM412:
 6253 23a0 1996      		adiw r26,9
 6254 23a2 ED91      		ld r30,X+
 6255 23a4 FC91      		ld r31,X
 6256 23a6 1A97      		sbiw r26,9+1
 6257 23a8 2081      		ld r18,Z
 6258 23aa 1D96      		adiw r26,13
 6259 23ac 8C91      		ld r24,X
 6260 23ae 1D97      		sbiw r26,13
 6261 23b0 3B01      		movw r6,r22
 6262 23b2 00C0      		rjmp 2f
 6263 23b4 660C      	1:	lsl r6
 6264 23b6 771C      		rol r7
 6265 23b8 8A95      	2:	dec r24
 6266 23ba 02F4      		brpl 1b
 6267 23bc C301      		movw r24,r6
 6268 23be 8095      		com r24
 6269 23c0 8223      		and r24,r18
 6270 23c2 8083      		st Z,r24
 6271 23c4 4150      		subi r20,lo8(-(-1))
 6272 23c6 5040      		sbci r21,hi8(-(-1))
 6273               	.LM413:
 6274 23c8 2FEF      		ldi r18,hi8(-1)
 6275 23ca 4F3F      		cpi r20,lo8(-1)
 6276 23cc 5207      		cpc r21,r18
 6277 23ce 01F0      		breq .+2
 6278 23d0 00C0      		rjmp .L190
 6279               	.LM414:
 6280 23d2 1296      		adiw r26,2
 6281 23d4 ED91      		ld r30,X+
 6282 23d6 FC91      		ld r31,X
 6283 23d8 1397      		sbiw r26,2+1
 6284 23da 2081      		ld r18,Z
 6285 23dc C801      		movw r24,r16
 6286 23de 1696      		adiw r26,6
 6287 23e0 0C90      		ld r0,X
 6288 23e2 1697      		sbiw r26,6
 6289 23e4 00C0      		rjmp 2f
 6290 23e6 880F      	1:	lsl r24
 6291 23e8 991F      		rol r25
 6292 23ea 0A94      	2:	dec r0
 6293 23ec 02F4      		brpl 1b
 6294 23ee 8095      		com r24
 6295 23f0 8223      		and r24,r18
 6296 23f2 8083      		st Z,r24
 6297               	.LM415:
 6298 23f4 ED91      		ld r30,X+
 6299 23f6 FC91      		ld r31,X
 6300 23f8 1197      		sbiw r26,1
 6301 23fa 2081      		ld r18,Z
 6302 23fc C801      		movw r24,r16
 6303 23fe 1696      		adiw r26,6
 6304 2400 0C90      		ld r0,X
 6305 2402 1697      		sbiw r26,6
 6306 2404 00C0      		rjmp 2f
 6307 2406 880F      	1:	lsl r24
 6308 2408 991F      		rol r25
 6309 240a 0A94      	2:	dec r0
 6310 240c 02F4      		brpl 1b
 6311 240e 8095      		com r24
 6312 2410 8223      		and r24,r18
 6313 2412 8083      		st Z,r24
 6314               	.LBB383:
 6315               	.LBB384:
 6316               	.LM416:
 6317               	/* #APP */
 6318               	 ;  45 "i2csw.c" 1
 6319 2414 0000      		nop
 6320               	 ;  0 "" 2
 6321               	 ;  45 "i2csw.c" 1
 6322 2416 0000      		nop
 6323               	 ;  0 "" 2
 6324               	 ;  45 "i2csw.c" 1
 6325 2418 0000      		nop
 6326               	 ;  0 "" 2
 6327               	 ;  45 "i2csw.c" 1
 6328 241a 0000      		nop
 6329               	 ;  0 "" 2
 6330               	 ;  45 "i2csw.c" 1
 6331 241c 0000      		nop
 6332               	 ;  0 "" 2
 6333               	 ;  45 "i2csw.c" 1
 6334 241e 0000      		nop
 6335               	 ;  0 "" 2
 6336               	 ;  45 "i2csw.c" 1
 6337 2420 0000      		nop
 6338               	 ;  0 "" 2
 6339               	 ;  45 "i2csw.c" 1
 6340 2422 0000      		nop
 6341               	 ;  0 "" 2
 6342               	/* #NOAPP */
 6343               	.LBE384:
 6344               	.LBE383:
 6345               	.LM417:
 6346 2424 1996      		adiw r26,9
 6347 2426 ED91      		ld r30,X+
 6348 2428 FC91      		ld r31,X
 6349 242a 1A97      		sbiw r26,9+1
 6350 242c 2081      		ld r18,Z
 6351 242e 1D96      		adiw r26,13
 6352 2430 8C91      		ld r24,X
 6353 2432 1D97      		sbiw r26,13
 6354 2434 A801      		movw r20,r16
 6355 2436 00C0      		rjmp 2f
 6356 2438 440F      	1:	lsl r20
 6357 243a 551F      		rol r21
 6358 243c 8A95      	2:	dec r24
 6359 243e 02F4      		brpl 1b
 6360 2440 242B      		or r18,r20
 6361 2442 2083      		st Z,r18
 6362 2444 1796      		adiw r26,7
 6363 2446 ED91      		ld r30,X+
 6364 2448 FC91      		ld r31,X
 6365 244a 1897      		sbiw r26,7+1
 6366 244c 2081      		ld r18,Z
 6367 244e 1D96      		adiw r26,13
 6368 2450 8C91      		ld r24,X
 6369 2452 1D97      		sbiw r26,13
 6370 2454 3801      		movw r6,r16
 6371 2456 00C0      		rjmp 2f
 6372 2458 660C      	1:	lsl r6
 6373 245a 771C      		rol r7
 6374 245c 8A95      	2:	dec r24
 6375 245e 02F4      		brpl 1b
 6376 2460 C301      		movw r24,r6
 6377 2462 8095      		com r24
 6378 2464 8223      		and r24,r18
 6379 2466 8083      		st Z,r24
 6380 2468 1B96      		adiw r26,11
 6381 246a ED91      		ld r30,X+
 6382 246c FC91      		ld r31,X
 6383 246e 1C97      		sbiw r26,11+1
 6384               	.L191:
 6385 2470 8081      		ld r24,Z
 6386 2472 1D96      		adiw r26,13
 6387 2474 2C91      		ld r18,X
 6388 2476 1D97      		sbiw r26,13
 6389 2478 90E0      		ldi r25,lo8(0)
 6390 247a 00C0      		rjmp 2f
 6391 247c 9595      	1:	asr r25
 6392 247e 8795      		ror r24
 6393 2480 2A95      	2:	dec r18
 6394 2482 02F4      		brpl 1b
 6395 2484 80FF      		sbrs r24,0
 6396 2486 00C0      		rjmp .L191
 6397 2488 1796      		adiw r26,7
 6398 248a ED91      		ld r30,X+
 6399 248c FC91      		ld r31,X
 6400 248e 1897      		sbiw r26,7+1
 6401 2490 2081      		ld r18,Z
 6402 2492 1D96      		adiw r26,13
 6403 2494 8C91      		ld r24,X
 6404 2496 1D97      		sbiw r26,13
 6405 2498 AB01      		movw r20,r22
 6406 249a 00C0      		rjmp 2f
 6407 249c 440F      	1:	lsl r20
 6408 249e 551F      		rol r21
 6409 24a0 8A95      	2:	dec r24
 6410 24a2 02F4      		brpl 1b
 6411 24a4 242B      		or r18,r20
 6412 24a6 2083      		st Z,r18
 6413               	.LM418:
 6414 24a8 1496      		adiw r26,4
 6415 24aa ED91      		ld r30,X+
 6416 24ac FC91      		ld r31,X
 6417 24ae 1597      		sbiw r26,4+1
 6418 24b0 E081      		ld r30,Z
 6419               	.LBB381:
 6420               	.LBB382:
 6421               	.LM419:
 6422               	/* #APP */
 6423               	 ;  45 "i2csw.c" 1
 6424 24b2 0000      		nop
 6425               	 ;  0 "" 2
 6426               	 ;  45 "i2csw.c" 1
 6427 24b4 0000      		nop
 6428               	 ;  0 "" 2
 6429               	 ;  45 "i2csw.c" 1
 6430 24b6 0000      		nop
 6431               	 ;  0 "" 2
 6432               	 ;  45 "i2csw.c" 1
 6433 24b8 0000      		nop
 6434               	 ;  0 "" 2
 6435               	 ;  45 "i2csw.c" 1
 6436 24ba 0000      		nop
 6437               	 ;  0 "" 2
 6438               	 ;  45 "i2csw.c" 1
 6439 24bc 0000      		nop
 6440               	 ;  0 "" 2
 6441               	 ;  45 "i2csw.c" 1
 6442 24be 0000      		nop
 6443               	 ;  0 "" 2
 6444               	 ;  45 "i2csw.c" 1
 6445 24c0 0000      		nop
 6446               	 ;  0 "" 2
 6447               	 ;  45 "i2csw.c" 1
 6448 24c2 0000      		nop
 6449               	 ;  0 "" 2
 6450               	/* #NOAPP */
 6451               	.LBE382:
 6452               	.LBE381:
 6453               	.LM420:
 6454 24c4 1996      		adiw r26,9
 6455 24c6 ED91      		ld r30,X+
 6456 24c8 FC91      		ld r31,X
 6457 24ca 1A97      		sbiw r26,9+1
 6458 24cc 2081      		ld r18,Z
 6459 24ce 1D96      		adiw r26,13
 6460 24d0 8C91      		ld r24,X
 6461 24d2 1D97      		sbiw r26,13
 6462 24d4 3B01      		movw r6,r22
 6463 24d6 00C0      		rjmp 2f
 6464 24d8 660C      	1:	lsl r6
 6465 24da 771C      		rol r7
 6466 24dc 8A95      	2:	dec r24
 6467 24de 02F4      		brpl 1b
 6468 24e0 C301      		movw r24,r6
 6469 24e2 8095      		com r24
 6470 24e4 8223      		and r24,r18
 6471 24e6 8083      		st Z,r24
 6472               	.LM421:
 6473 24e8 ED91      		ld r30,X+
 6474 24ea FC91      		ld r31,X
 6475 24ec 1197      		sbiw r26,1
 6476 24ee 2081      		ld r18,Z
 6477 24f0 CB01      		movw r24,r22
 6478 24f2 1696      		adiw r26,6
 6479 24f4 0C90      		ld r0,X
 6480 24f6 1697      		sbiw r26,6
 6481 24f8 00C0      		rjmp 2f
 6482 24fa 880F      	1:	lsl r24
 6483 24fc 991F      		rol r25
 6484 24fe 0A94      	2:	dec r0
 6485 2500 02F4      		brpl 1b
 6486 2502 282B      		or r18,r24
 6487 2504 2083      		st Z,r18
 6488               	.LBB379:
 6489               	.LBB380:
 6490               	.LM422:
 6491               	/* #APP */
 6492               	 ;  45 "i2csw.c" 1
 6493 2506 0000      		nop
 6494               	 ;  0 "" 2
 6495               	 ;  45 "i2csw.c" 1
 6496 2508 0000      		nop
 6497               	 ;  0 "" 2
 6498               	 ;  45 "i2csw.c" 1
 6499 250a 0000      		nop
 6500               	 ;  0 "" 2
 6501               	 ;  45 "i2csw.c" 1
 6502 250c 0000      		nop
 6503               	 ;  0 "" 2
 6504               	 ;  45 "i2csw.c" 1
 6505 250e 0000      		nop
 6506               	 ;  0 "" 2
 6507               	/* #NOAPP */
 6508               	.LBE380:
 6509               	.LBE379:
 6510               	.LBE377:
 6511               	.LBE390:
 6512               	.LM423:
 6513 2510 0894      		sec
 6514 2512 C11C      		adc r12,__zero_reg__
 6515 2514 D11C      		adc r13,__zero_reg__
 6516 2516 BA94      		dec r11
 6517               	.LM424:
 6518 2518 01F0      		breq .+2
 6519 251a 00C0      		rjmp .L192
 6520               	.L229:
 6521               	.LBB391:
 6522               	.LBB392:
 6523               	.LM425:
 6524               	/* #APP */
 6525               	 ;  45 "i2csw.c" 1
 6526 251c 0000      		nop
 6527               	 ;  0 "" 2
 6528               	 ;  45 "i2csw.c" 1
 6529 251e 0000      		nop
 6530               	 ;  0 "" 2
 6531               	 ;  45 "i2csw.c" 1
 6532 2520 0000      		nop
 6533               	 ;  0 "" 2
 6534               	 ;  45 "i2csw.c" 1
 6535 2522 0000      		nop
 6536               	 ;  0 "" 2
 6537               	 ;  45 "i2csw.c" 1
 6538 2524 0000      		nop
 6539               	 ;  0 "" 2
 6540               	 ;  45 "i2csw.c" 1
 6541 2526 0000      		nop
 6542               	 ;  0 "" 2
 6543               	 ;  45 "i2csw.c" 1
 6544 2528 0000      		nop
 6545               	 ;  0 "" 2
 6546               	 ;  45 "i2csw.c" 1
 6547 252a 0000      		nop
 6548               	 ;  0 "" 2
 6549               	 ;  45 "i2csw.c" 1
 6550 252c 0000      		nop
 6551               	 ;  0 "" 2
 6552               	/* #NOAPP */
 6553               	.LBE392:
 6554               	.LBE391:
 6555               	.LM426:
 6556 252e 1996      		adiw r26,9
 6557 2530 ED91      		ld r30,X+
 6558 2532 FC91      		ld r31,X
 6559 2534 1A97      		sbiw r26,9+1
 6560 2536 4081      		ld r20,Z
 6561 2538 1D96      		adiw r26,13
 6562 253a 2C91      		ld r18,X
 6563 253c 1D97      		sbiw r26,13
 6564 253e 81E0      		ldi r24,lo8(1)
 6565 2540 90E0      		ldi r25,hi8(1)
 6566 2542 8C01      		movw r16,r24
 6567 2544 00C0      		rjmp 2f
 6568 2546 000F      	1:	lsl r16
 6569 2548 111F      		rol r17
 6570 254a 2A95      	2:	dec r18
 6571 254c 02F4      		brpl 1b
 6572 254e 402B      		or r20,r16
 6573 2550 4083      		st Z,r20
 6574 2552 1796      		adiw r26,7
 6575 2554 ED91      		ld r30,X+
 6576 2556 FC91      		ld r31,X
 6577 2558 1897      		sbiw r26,7+1
 6578 255a 3081      		ld r19,Z
 6579 255c 1D96      		adiw r26,13
 6580 255e 2C91      		ld r18,X
 6581 2560 1D97      		sbiw r26,13
 6582 2562 00C0      		rjmp 2f
 6583 2564 880F      	1:	lsl r24
 6584 2566 991F      		rol r25
 6585 2568 2A95      	2:	dec r18
 6586 256a 02F4      		brpl 1b
 6587 256c 8095      		com r24
 6588 256e 8323      		and r24,r19
 6589 2570 8083      		st Z,r24
 6590 2572 1B96      		adiw r26,11
 6591 2574 ED91      		ld r30,X+
 6592 2576 FC91      		ld r31,X
 6593 2578 1C97      		sbiw r26,11+1
 6594               	.L193:
 6595 257a 8081      		ld r24,Z
 6596 257c 1D96      		adiw r26,13
 6597 257e 2C91      		ld r18,X
 6598 2580 1D97      		sbiw r26,13
 6599 2582 90E0      		ldi r25,lo8(0)
 6600 2584 00C0      		rjmp 2f
 6601 2586 9595      	1:	asr r25
 6602 2588 8795      		ror r24
 6603 258a 2A95      	2:	dec r18
 6604 258c 02F4      		brpl 1b
 6605 258e 80FF      		sbrs r24,0
 6606 2590 00C0      		rjmp .L193
 6607 2592 1796      		adiw r26,7
 6608 2594 ED91      		ld r30,X+
 6609 2596 FC91      		ld r31,X
 6610 2598 1897      		sbiw r26,7+1
 6611 259a 4081      		ld r20,Z
 6612 259c 1D96      		adiw r26,13
 6613 259e 8C91      		ld r24,X
 6614 25a0 1D97      		sbiw r26,13
 6615 25a2 21E0      		ldi r18,lo8(1)
 6616 25a4 30E0      		ldi r19,hi8(1)
 6617 25a6 B901      		movw r22,r18
 6618 25a8 00C0      		rjmp 2f
 6619 25aa 660F      	1:	lsl r22
 6620 25ac 771F      		rol r23
 6621 25ae 8A95      	2:	dec r24
 6622 25b0 02F4      		brpl 1b
 6623 25b2 462B      		or r20,r22
 6624 25b4 4083      		st Z,r20
 6625               	.LM427:
 6626 25b6 1996      		adiw r26,9
 6627 25b8 ED91      		ld r30,X+
 6628 25ba FC91      		ld r31,X
 6629 25bc 1A97      		sbiw r26,9+1
 6630 25be 4081      		ld r20,Z
 6631 25c0 1D96      		adiw r26,13
 6632 25c2 8C91      		ld r24,X
 6633 25c4 1D97      		sbiw r26,13
 6634 25c6 3901      		movw r6,r18
 6635 25c8 00C0      		rjmp 2f
 6636 25ca 660C      	1:	lsl r6
 6637 25cc 771C      		rol r7
 6638 25ce 8A95      	2:	dec r24
 6639 25d0 02F4      		brpl 1b
 6640 25d2 4629      		or r20,r6
 6641 25d4 4083      		st Z,r20
 6642 25d6 1796      		adiw r26,7
 6643 25d8 ED91      		ld r30,X+
 6644 25da FC91      		ld r31,X
 6645 25dc 1897      		sbiw r26,7+1
 6646 25de 9081      		ld r25,Z
 6647 25e0 1D96      		adiw r26,13
 6648 25e2 8C91      		ld r24,X
 6649 25e4 1D97      		sbiw r26,13
 6650 25e6 00C0      		rjmp 2f
 6651 25e8 220F      	1:	lsl r18
 6652 25ea 331F      		rol r19
 6653 25ec 8A95      	2:	dec r24
 6654 25ee 02F4      		brpl 1b
 6655 25f0 2095      		com r18
 6656 25f2 2923      		and r18,r25
 6657 25f4 2083      		st Z,r18
 6658 25f6 1B96      		adiw r26,11
 6659 25f8 ED91      		ld r30,X+
 6660 25fa FC91      		ld r31,X
 6661 25fc 1C97      		sbiw r26,11+1
 6662               	.L194:
 6663 25fe 8081      		ld r24,Z
 6664 2600 1D96      		adiw r26,13
 6665 2602 2C91      		ld r18,X
 6666 2604 1D97      		sbiw r26,13
 6667 2606 90E0      		ldi r25,lo8(0)
 6668 2608 00C0      		rjmp 2f
 6669 260a 9595      	1:	asr r25
 6670 260c 8795      		ror r24
 6671 260e 2A95      	2:	dec r18
 6672 2610 02F4      		brpl 1b
 6673 2612 80FF      		sbrs r24,0
 6674 2614 00C0      		rjmp .L194
 6675 2616 1796      		adiw r26,7
 6676 2618 ED91      		ld r30,X+
 6677 261a FC91      		ld r31,X
 6678 261c 1897      		sbiw r26,7+1
 6679 261e 2081      		ld r18,Z
 6680 2620 1D96      		adiw r26,13
 6681 2622 8C91      		ld r24,X
 6682 2624 1D97      		sbiw r26,13
 6683 2626 41E0      		ldi r20,lo8(1)
 6684 2628 50E0      		ldi r21,hi8(1)
 6685 262a 8A01      		movw r16,r20
 6686 262c 00C0      		rjmp 2f
 6687 262e 000F      	1:	lsl r16
 6688 2630 111F      		rol r17
 6689 2632 8A95      	2:	dec r24
 6690 2634 02F4      		brpl 1b
 6691 2636 202B      		or r18,r16
 6692 2638 2083      		st Z,r18
 6693 263a 1296      		adiw r26,2
 6694 263c ED91      		ld r30,X+
 6695 263e FC91      		ld r31,X
 6696 2640 1397      		sbiw r26,2+1
 6697 2642 2081      		ld r18,Z
 6698 2644 CA01      		movw r24,r20
 6699 2646 1696      		adiw r26,6
 6700 2648 0C90      		ld r0,X
 6701 264a 1697      		sbiw r26,6
 6702 264c 00C0      		rjmp 2f
 6703 264e 880F      	1:	lsl r24
 6704 2650 991F      		rol r25
 6705 2652 0A94      	2:	dec r0
 6706 2654 02F4      		brpl 1b
 6707 2656 282B      		or r18,r24
 6708 2658 2083      		st Z,r18
 6709               	.LBB393:
 6710               	.LBB394:
 6711               	.LM428:
 6712               	/* #APP */
 6713               	 ;  45 "i2csw.c" 1
 6714 265a 0000      		nop
 6715               	 ;  0 "" 2
 6716               	 ;  45 "i2csw.c" 1
 6717 265c 0000      		nop
 6718               	 ;  0 "" 2
 6719               	 ;  45 "i2csw.c" 1
 6720 265e 0000      		nop
 6721               	 ;  0 "" 2
 6722               	 ;  45 "i2csw.c" 1
 6723 2660 0000      		nop
 6724               	 ;  0 "" 2
 6725               	 ;  45 "i2csw.c" 1
 6726 2662 0000      		nop
 6727               	 ;  0 "" 2
 6728               	/* #NOAPP */
 6729               	.LBE394:
 6730               	.LBE393:
 6731               	.LM429:
 6732 2664 1296      		adiw r26,2
 6733 2666 ED91      		ld r30,X+
 6734 2668 FC91      		ld r31,X
 6735 266a 1397      		sbiw r26,2+1
 6736 266c 2081      		ld r18,Z
 6737 266e CA01      		movw r24,r20
 6738 2670 1696      		adiw r26,6
 6739 2672 0C90      		ld r0,X
 6740 2674 1697      		sbiw r26,6
 6741 2676 00C0      		rjmp 2f
 6742 2678 880F      	1:	lsl r24
 6743 267a 991F      		rol r25
 6744 267c 0A94      	2:	dec r0
 6745 267e 02F4      		brpl 1b
 6746 2680 8095      		com r24
 6747 2682 8223      		and r24,r18
 6748 2684 8083      		st Z,r24
 6749               	.LBB395:
 6750               	.LBB396:
 6751               	.LM430:
 6752               	/* #APP */
 6753               	 ;  45 "i2csw.c" 1
 6754 2686 0000      		nop
 6755               	 ;  0 "" 2
 6756               	 ;  45 "i2csw.c" 1
 6757 2688 0000      		nop
 6758               	 ;  0 "" 2
 6759               	 ;  45 "i2csw.c" 1
 6760 268a 0000      		nop
 6761               	 ;  0 "" 2
 6762               	 ;  45 "i2csw.c" 1
 6763 268c 0000      		nop
 6764               	 ;  0 "" 2
 6765               	 ;  45 "i2csw.c" 1
 6766 268e 0000      		nop
 6767               	 ;  0 "" 2
 6768               	/* #NOAPP */
 6769               	.LBE396:
 6770               	.LBE395:
 6771               	.LM431:
 6772 2690 1996      		adiw r26,9
 6773 2692 ED91      		ld r30,X+
 6774 2694 FC91      		ld r31,X
 6775 2696 1A97      		sbiw r26,9+1
 6776 2698 9081      		ld r25,Z
 6777 269a 1D96      		adiw r26,13
 6778 269c 8C91      		ld r24,X
 6779 269e 1D97      		sbiw r26,13
 6780 26a0 00C0      		rjmp 2f
 6781 26a2 440F      	1:	lsl r20
 6782 26a4 551F      		rol r21
 6783 26a6 8A95      	2:	dec r24
 6784 26a8 02F4      		brpl 1b
 6785 26aa 4095      		com r20
 6786 26ac 4923      		and r20,r25
 6787 26ae 4083      		st Z,r20
 6788 26b0 11E0      		ldi r17,lo8(1)
 6789 26b2 912A      		or r9,r17
 6790 26b4 C92C      		mov r12,r9
 6791               	.LVL84:
 6792 26b6 DD24      		clr r13
 6793 26b8 47E0      		ldi r20,lo8(7)
 6794 26ba 50E0      		ldi r21,hi8(7)
 6795               	.LBB397:
 6796               	.LBB399:
 6797               	.LM432:
 6798 26bc C1E0      		ldi r28,lo8(1)
 6799 26be D0E0      		ldi r29,hi8(1)
 6800               	.L198:
 6801               	.LBE399:
 6802               	.LM433:
 6803 26c0 C601      		movw r24,r12
 6804 26c2 042E      		mov r0,r20
 6805 26c4 00C0      		rjmp 2f
 6806 26c6 9595      	1:	asr r25
 6807 26c8 8795      		ror r24
 6808 26ca 0A94      	2:	dec r0
 6809 26cc 02F4      		brpl 1b
 6810 26ce 80FF      		sbrs r24,0
 6811 26d0 00C0      		rjmp .L195
 6812               	.LBB398:
 6813               	.LM434:
 6814 26d2 1296      		adiw r26,2
 6815 26d4 ED91      		ld r30,X+
 6816 26d6 FC91      		ld r31,X
 6817 26d8 1397      		sbiw r26,2+1
 6818 26da 2081      		ld r18,Z
 6819 26dc CE01      		movw r24,r28
 6820 26de 1696      		adiw r26,6
 6821 26e0 0C90      		ld r0,X
 6822 26e2 1697      		sbiw r26,6
 6823 26e4 00C0      		rjmp 2f
 6824 26e6 880F      	1:	lsl r24
 6825 26e8 991F      		rol r25
 6826 26ea 0A94      	2:	dec r0
 6827 26ec 02F4      		brpl 1b
 6828 26ee 282B      		or r18,r24
 6829 26f0 2083      		st Z,r18
 6830               	.L196:
 6831               	.LBB408:
 6832               	.LBB409:
 6833               	.LM435:
 6834               	/* #APP */
 6835               	 ;  45 "i2csw.c" 1
 6836 26f2 0000      		nop
 6837               	 ;  0 "" 2
 6838               	 ;  45 "i2csw.c" 1
 6839 26f4 0000      		nop
 6840               	 ;  0 "" 2
 6841               	 ;  45 "i2csw.c" 1
 6842 26f6 0000      		nop
 6843               	 ;  0 "" 2
 6844               	 ;  45 "i2csw.c" 1
 6845 26f8 0000      		nop
 6846               	 ;  0 "" 2
 6847               	 ;  45 "i2csw.c" 1
 6848 26fa 0000      		nop
 6849               	 ;  0 "" 2
 6850               	/* #NOAPP */
 6851               	.LBE409:
 6852               	.LBE408:
 6853               	.LM436:
 6854 26fc 1996      		adiw r26,9
 6855 26fe ED91      		ld r30,X+
 6856 2700 FC91      		ld r31,X
 6857 2702 1A97      		sbiw r26,9+1
 6858 2704 2081      		ld r18,Z
 6859 2706 1D96      		adiw r26,13
 6860 2708 8C91      		ld r24,X
 6861 270a 1D97      		sbiw r26,13
 6862 270c BE01      		movw r22,r28
 6863 270e 00C0      		rjmp 2f
 6864 2710 660F      	1:	lsl r22
 6865 2712 771F      		rol r23
 6866 2714 8A95      	2:	dec r24
 6867 2716 02F4      		brpl 1b
 6868 2718 262B      		or r18,r22
 6869 271a 2083      		st Z,r18
 6870 271c 1796      		adiw r26,7
 6871 271e ED91      		ld r30,X+
 6872 2720 FC91      		ld r31,X
 6873 2722 1897      		sbiw r26,7+1
 6874 2724 2081      		ld r18,Z
 6875 2726 1D96      		adiw r26,13
 6876 2728 8C91      		ld r24,X
 6877 272a 1D97      		sbiw r26,13
 6878 272c 3E01      		movw r6,r28
 6879 272e 00C0      		rjmp 2f
 6880 2730 660C      	1:	lsl r6
 6881 2732 771C      		rol r7
 6882 2734 8A95      	2:	dec r24
 6883 2736 02F4      		brpl 1b
 6884 2738 C301      		movw r24,r6
 6885 273a 8095      		com r24
 6886 273c 8223      		and r24,r18
 6887 273e 8083      		st Z,r24
 6888 2740 1B96      		adiw r26,11
 6889 2742 ED91      		ld r30,X+
 6890 2744 FC91      		ld r31,X
 6891 2746 1C97      		sbiw r26,11+1
 6892               	.L197:
 6893 2748 8081      		ld r24,Z
 6894 274a 1D96      		adiw r26,13
 6895 274c 2C91      		ld r18,X
 6896 274e 1D97      		sbiw r26,13
 6897 2750 90E0      		ldi r25,lo8(0)
 6898 2752 00C0      		rjmp 2f
 6899 2754 9595      	1:	asr r25
 6900 2756 8795      		ror r24
 6901 2758 2A95      	2:	dec r18
 6902 275a 02F4      		brpl 1b
 6903 275c 80FF      		sbrs r24,0
 6904 275e 00C0      		rjmp .L197
 6905 2760 1796      		adiw r26,7
 6906 2762 ED91      		ld r30,X+
 6907 2764 FC91      		ld r31,X
 6908 2766 1897      		sbiw r26,7+1
 6909 2768 2081      		ld r18,Z
 6910 276a 1D96      		adiw r26,13
 6911 276c 8C91      		ld r24,X
 6912 276e 1D97      		sbiw r26,13
 6913 2770 61E0      		ldi r22,lo8(1)
 6914 2772 70E0      		ldi r23,hi8(1)
 6915 2774 8E01      		movw r16,r28
 6916 2776 00C0      		rjmp 2f
 6917 2778 000F      	1:	lsl r16
 6918 277a 111F      		rol r17
 6919 277c 8A95      	2:	dec r24
 6920 277e 02F4      		brpl 1b
 6921 2780 202B      		or r18,r16
 6922 2782 2083      		st Z,r18
 6923               	.LBB406:
 6924               	.LBB407:
 6925               	.LM437:
 6926               	/* #APP */
 6927               	 ;  45 "i2csw.c" 1
 6928 2784 0000      		nop
 6929               	 ;  0 "" 2
 6930               	 ;  45 "i2csw.c" 1
 6931 2786 0000      		nop
 6932               	 ;  0 "" 2
 6933               	 ;  45 "i2csw.c" 1
 6934 2788 0000      		nop
 6935               	 ;  0 "" 2
 6936               	 ;  45 "i2csw.c" 1
 6937 278a 0000      		nop
 6938               	 ;  0 "" 2
 6939               	 ;  45 "i2csw.c" 1
 6940 278c 0000      		nop
 6941               	 ;  0 "" 2
 6942               	 ;  45 "i2csw.c" 1
 6943 278e 0000      		nop
 6944               	 ;  0 "" 2
 6945               	 ;  45 "i2csw.c" 1
 6946 2790 0000      		nop
 6947               	 ;  0 "" 2
 6948               	 ;  45 "i2csw.c" 1
 6949 2792 0000      		nop
 6950               	 ;  0 "" 2
 6951               	 ;  45 "i2csw.c" 1
 6952 2794 0000      		nop
 6953               	 ;  0 "" 2
 6954               	/* #NOAPP */
 6955               	.LBE407:
 6956               	.LBE406:
 6957               	.LM438:
 6958 2796 1996      		adiw r26,9
 6959 2798 ED91      		ld r30,X+
 6960 279a FC91      		ld r31,X
 6961 279c 1A97      		sbiw r26,9+1
 6962 279e 2081      		ld r18,Z
 6963 27a0 1D96      		adiw r26,13
 6964 27a2 8C91      		ld r24,X
 6965 27a4 1D97      		sbiw r26,13
 6966 27a6 3E01      		movw r6,r28
 6967 27a8 00C0      		rjmp 2f
 6968 27aa 660C      	1:	lsl r6
 6969 27ac 771C      		rol r7
 6970 27ae 8A95      	2:	dec r24
 6971 27b0 02F4      		brpl 1b
 6972 27b2 C301      		movw r24,r6
 6973 27b4 8095      		com r24
 6974 27b6 8223      		and r24,r18
 6975 27b8 8083      		st Z,r24
 6976 27ba 4150      		subi r20,lo8(-(-1))
 6977 27bc 5040      		sbci r21,hi8(-(-1))
 6978               	.LM439:
 6979 27be 0FEF      		ldi r16,hi8(-1)
 6980 27c0 4F3F      		cpi r20,lo8(-1)
 6981 27c2 5007      		cpc r21,r16
 6982 27c4 01F0      		breq .+2
 6983 27c6 00C0      		rjmp .L198
 6984               	.LM440:
 6985 27c8 1296      		adiw r26,2
 6986 27ca ED91      		ld r30,X+
 6987 27cc FC91      		ld r31,X
 6988 27ce 1397      		sbiw r26,2+1
 6989 27d0 2081      		ld r18,Z
 6990 27d2 CB01      		movw r24,r22
 6991 27d4 1696      		adiw r26,6
 6992 27d6 0C90      		ld r0,X
 6993 27d8 1697      		sbiw r26,6
 6994 27da 00C0      		rjmp 2f
 6995 27dc 880F      	1:	lsl r24
 6996 27de 991F      		rol r25
 6997 27e0 0A94      	2:	dec r0
 6998 27e2 02F4      		brpl 1b
 6999 27e4 8095      		com r24
 7000 27e6 8223      		and r24,r18
 7001 27e8 8083      		st Z,r24
 7002               	.LM441:
 7003 27ea ED91      		ld r30,X+
 7004 27ec FC91      		ld r31,X
 7005 27ee 1197      		sbiw r26,1
 7006 27f0 2081      		ld r18,Z
 7007 27f2 CB01      		movw r24,r22
 7008 27f4 1696      		adiw r26,6
 7009 27f6 0C90      		ld r0,X
 7010 27f8 1697      		sbiw r26,6
 7011 27fa 00C0      		rjmp 2f
 7012 27fc 880F      	1:	lsl r24
 7013 27fe 991F      		rol r25
 7014 2800 0A94      	2:	dec r0
 7015 2802 02F4      		brpl 1b
 7016 2804 8095      		com r24
 7017 2806 8223      		and r24,r18
 7018 2808 8083      		st Z,r24
 7019               	.LBB404:
 7020               	.LBB405:
 7021               	.LM442:
 7022               	/* #APP */
 7023               	 ;  45 "i2csw.c" 1
 7024 280a 0000      		nop
 7025               	 ;  0 "" 2
 7026               	 ;  45 "i2csw.c" 1
 7027 280c 0000      		nop
 7028               	 ;  0 "" 2
 7029               	 ;  45 "i2csw.c" 1
 7030 280e 0000      		nop
 7031               	 ;  0 "" 2
 7032               	 ;  45 "i2csw.c" 1
 7033 2810 0000      		nop
 7034               	 ;  0 "" 2
 7035               	 ;  45 "i2csw.c" 1
 7036 2812 0000      		nop
 7037               	 ;  0 "" 2
 7038               	 ;  45 "i2csw.c" 1
 7039 2814 0000      		nop
 7040               	 ;  0 "" 2
 7041               	 ;  45 "i2csw.c" 1
 7042 2816 0000      		nop
 7043               	 ;  0 "" 2
 7044               	 ;  45 "i2csw.c" 1
 7045 2818 0000      		nop
 7046               	 ;  0 "" 2
 7047               	/* #NOAPP */
 7048               	.LBE405:
 7049               	.LBE404:
 7050               	.LM443:
 7051 281a 1996      		adiw r26,9
 7052 281c ED91      		ld r30,X+
 7053 281e FC91      		ld r31,X
 7054 2820 1A97      		sbiw r26,9+1
 7055 2822 2081      		ld r18,Z
 7056 2824 1D96      		adiw r26,13
 7057 2826 8C91      		ld r24,X
 7058 2828 1D97      		sbiw r26,13
 7059 282a AB01      		movw r20,r22
 7060 282c 00C0      		rjmp 2f
 7061 282e 440F      	1:	lsl r20
 7062 2830 551F      		rol r21
 7063 2832 8A95      	2:	dec r24
 7064 2834 02F4      		brpl 1b
 7065 2836 242B      		or r18,r20
 7066 2838 2083      		st Z,r18
 7067 283a 1796      		adiw r26,7
 7068 283c ED91      		ld r30,X+
 7069 283e FC91      		ld r31,X
 7070 2840 1897      		sbiw r26,7+1
 7071 2842 9081      		ld r25,Z
 7072 2844 1D96      		adiw r26,13
 7073 2846 8C91      		ld r24,X
 7074 2848 1D97      		sbiw r26,13
 7075 284a 00C0      		rjmp 2f
 7076 284c 660F      	1:	lsl r22
 7077 284e 771F      		rol r23
 7078 2850 8A95      	2:	dec r24
 7079 2852 02F4      		brpl 1b
 7080 2854 862F      		mov r24,r22
 7081 2856 8095      		com r24
 7082 2858 8923      		and r24,r25
 7083 285a 8083      		st Z,r24
 7084 285c 1B96      		adiw r26,11
 7085 285e ED91      		ld r30,X+
 7086 2860 FC91      		ld r31,X
 7087 2862 1C97      		sbiw r26,11+1
 7088               	.L199:
 7089 2864 8081      		ld r24,Z
 7090 2866 1D96      		adiw r26,13
 7091 2868 2C91      		ld r18,X
 7092 286a 1D97      		sbiw r26,13
 7093 286c 90E0      		ldi r25,lo8(0)
 7094 286e 00C0      		rjmp 2f
 7095 2870 9595      	1:	asr r25
 7096 2872 8795      		ror r24
 7097 2874 2A95      	2:	dec r18
 7098 2876 02F4      		brpl 1b
 7099 2878 80FF      		sbrs r24,0
 7100 287a 00C0      		rjmp .L199
 7101 287c 1796      		adiw r26,7
 7102 287e ED91      		ld r30,X+
 7103 2880 FC91      		ld r31,X
 7104 2882 1897      		sbiw r26,7+1
 7105 2884 2081      		ld r18,Z
 7106 2886 1D96      		adiw r26,13
 7107 2888 8C91      		ld r24,X
 7108 288a 1D97      		sbiw r26,13
 7109 288c 41E0      		ldi r20,lo8(1)
 7110 288e 50E0      		ldi r21,hi8(1)
 7111 2890 BA01      		movw r22,r20
 7112 2892 00C0      		rjmp 2f
 7113 2894 660F      	1:	lsl r22
 7114 2896 771F      		rol r23
 7115 2898 8A95      	2:	dec r24
 7116 289a 02F4      		brpl 1b
 7117 289c 262B      		or r18,r22
 7118 289e 2083      		st Z,r18
 7119               	.LM444:
 7120 28a0 1496      		adiw r26,4
 7121 28a2 ED91      		ld r30,X+
 7122 28a4 FC91      		ld r31,X
 7123 28a6 1597      		sbiw r26,4+1
 7124 28a8 E081      		ld r30,Z
 7125               	.LBB402:
 7126               	.LBB403:
 7127               	.LM445:
 7128               	/* #APP */
 7129               	 ;  45 "i2csw.c" 1
 7130 28aa 0000      		nop
 7131               	 ;  0 "" 2
 7132               	 ;  45 "i2csw.c" 1
 7133 28ac 0000      		nop
 7134               	 ;  0 "" 2
 7135               	 ;  45 "i2csw.c" 1
 7136 28ae 0000      		nop
 7137               	 ;  0 "" 2
 7138               	 ;  45 "i2csw.c" 1
 7139 28b0 0000      		nop
 7140               	 ;  0 "" 2
 7141               	 ;  45 "i2csw.c" 1
 7142 28b2 0000      		nop
 7143               	 ;  0 "" 2
 7144               	 ;  45 "i2csw.c" 1
 7145 28b4 0000      		nop
 7146               	 ;  0 "" 2
 7147               	 ;  45 "i2csw.c" 1
 7148 28b6 0000      		nop
 7149               	 ;  0 "" 2
 7150               	 ;  45 "i2csw.c" 1
 7151 28b8 0000      		nop
 7152               	 ;  0 "" 2
 7153               	 ;  45 "i2csw.c" 1
 7154 28ba 0000      		nop
 7155               	 ;  0 "" 2
 7156               	/* #NOAPP */
 7157               	.LBE403:
 7158               	.LBE402:
 7159               	.LM446:
 7160 28bc 1996      		adiw r26,9
 7161 28be ED91      		ld r30,X+
 7162 28c0 FC91      		ld r31,X
 7163 28c2 1A97      		sbiw r26,9+1
 7164 28c4 2081      		ld r18,Z
 7165 28c6 1D96      		adiw r26,13
 7166 28c8 8C91      		ld r24,X
 7167 28ca 1D97      		sbiw r26,13
 7168 28cc 3A01      		movw r6,r20
 7169 28ce 00C0      		rjmp 2f
 7170 28d0 660C      	1:	lsl r6
 7171 28d2 771C      		rol r7
 7172 28d4 8A95      	2:	dec r24
 7173 28d6 02F4      		brpl 1b
 7174 28d8 C301      		movw r24,r6
 7175 28da 8095      		com r24
 7176 28dc 8223      		and r24,r18
 7177 28de 8083      		st Z,r24
 7178               	.LM447:
 7179 28e0 ED91      		ld r30,X+
 7180 28e2 FC91      		ld r31,X
 7181 28e4 1197      		sbiw r26,1
 7182 28e6 8081      		ld r24,Z
 7183 28e8 1696      		adiw r26,6
 7184 28ea 0C90      		ld r0,X
 7185 28ec 1697      		sbiw r26,6
 7186 28ee 00C0      		rjmp 2f
 7187 28f0 440F      	1:	lsl r20
 7188 28f2 551F      		rol r21
 7189 28f4 0A94      	2:	dec r0
 7190 28f6 02F4      		brpl 1b
 7191 28f8 842B      		or r24,r20
 7192 28fa 8083      		st Z,r24
 7193               	.LBB400:
 7194               	.LBB401:
 7195               	.LM448:
 7196               	/* #APP */
 7197               	 ;  45 "i2csw.c" 1
 7198 28fc 0000      		nop
 7199               	 ;  0 "" 2
 7200               	 ;  45 "i2csw.c" 1
 7201 28fe 0000      		nop
 7202               	 ;  0 "" 2
 7203               	 ;  45 "i2csw.c" 1
 7204 2900 0000      		nop
 7205               	 ;  0 "" 2
 7206               	 ;  45 "i2csw.c" 1
 7207 2902 0000      		nop
 7208               	 ;  0 "" 2
 7209               	 ;  45 "i2csw.c" 1
 7210 2904 0000      		nop
 7211               	 ;  0 "" 2
 7212               	/* #NOAPP */
 7213               	.LBE401:
 7214               	.LBE400:
 7215               	.LBE398:
 7216               	.LBE397:
 7217               	.LM449:
 7218 2906 8820      		tst r8
 7219 2908 01F4      		brne .+2
 7220 290a 00C0      		rjmp .L200
 7221 290c E701      		movw r28,r14
 7222               	.LVL85:
 7223 290e 882D      		mov r24,r8
 7224 2910 90E0      		ldi r25,lo8(0)
 7225               	.LBB411:
 7226               	.LBB413:
 7227               	.LM450:
 7228 2912 41E0      		ldi r20,lo8(1)
 7229 2914 50E0      		ldi r21,hi8(1)
 7230               	.LM451:
 7231 2916 01E0      		ldi r16,lo8(1)
 7232 2918 10E0      		ldi r17,hi8(1)
 7233               	.LM452:
 7234 291a E80E      		add r14,r24
 7235 291c F91E      		adc r15,r25
 7236               	.LVL86:
 7237 291e 0894      		sec
 7238 2920 E108      		sbc r14,__zero_reg__
 7239 2922 F108      		sbc r15,__zero_reg__
 7240               	.LBE413:
 7241               	.LBE411:
 7242               	.LM453:
 7243 2924 6C01      		movw r12,r24
 7244 2926 0894      		sec
 7245 2928 C108      		sbc r12,__zero_reg__
 7246 292a D108      		sbc r13,__zero_reg__
 7247 292c CC0E      		add r12,r28
 7248 292e DD1E      		adc r13,r29
 7249               	.LVL87:
 7250               	.L208:
 7251               	.LBB423:
 7252               	.LBB412:
 7253               	.LM454:
 7254 2930 1296      		adiw r26,2
 7255 2932 ED91      		ld r30,X+
 7256 2934 FC91      		ld r31,X
 7257 2936 1397      		sbiw r26,2+1
 7258 2938 2081      		ld r18,Z
 7259 293a CA01      		movw r24,r20
 7260 293c 1696      		adiw r26,6
 7261 293e 0C90      		ld r0,X
 7262 2940 1697      		sbiw r26,6
 7263 2942 00C0      		rjmp 2f
 7264 2944 880F      	1:	lsl r24
 7265 2946 991F      		rol r25
 7266 2948 0A94      	2:	dec r0
 7267 294a 02F4      		brpl 1b
 7268 294c 282B      		or r18,r24
 7269 294e 2083      		st Z,r18
 7270               	.LM455:
 7271 2950 ED91      		ld r30,X+
 7272 2952 FC91      		ld r31,X
 7273 2954 1197      		sbiw r26,1
 7274 2956 2081      		ld r18,Z
 7275 2958 CA01      		movw r24,r20
 7276 295a 1696      		adiw r26,6
 7277 295c 0C90      		ld r0,X
 7278 295e 1697      		sbiw r26,6
 7279 2960 00C0      		rjmp 2f
 7280 2962 880F      	1:	lsl r24
 7281 2964 991F      		rol r25
 7282 2966 0A94      	2:	dec r0
 7283 2968 02F4      		brpl 1b
 7284 296a 8095      		com r24
 7285 296c 8223      		and r24,r18
 7286 296e 8083      		st Z,r24
 7287 2970 60E0      		ldi r22,lo8(0)
 7288 2972 37E0      		ldi r19,lo8(7)
 7289               	.L201:
 7290               	.LBB420:
 7291               	.LBB421:
 7292               	.LM456:
 7293               	/* #APP */
 7294               	 ;  45 "i2csw.c" 1
 7295 2974 0000      		nop
 7296               	 ;  0 "" 2
 7297               	 ;  45 "i2csw.c" 1
 7298 2976 0000      		nop
 7299               	 ;  0 "" 2
 7300               	 ;  45 "i2csw.c" 1
 7301 2978 0000      		nop
 7302               	 ;  0 "" 2
 7303               	 ;  45 "i2csw.c" 1
 7304 297a 0000      		nop
 7305               	 ;  0 "" 2
 7306               	 ;  45 "i2csw.c" 1
 7307 297c 0000      		nop
 7308               	 ;  0 "" 2
 7309               	 ;  45 "i2csw.c" 1
 7310 297e 0000      		nop
 7311               	 ;  0 "" 2
 7312               	 ;  45 "i2csw.c" 1
 7313 2980 0000      		nop
 7314               	 ;  0 "" 2
 7315               	 ;  45 "i2csw.c" 1
 7316 2982 0000      		nop
 7317               	 ;  0 "" 2
 7318               	 ;  45 "i2csw.c" 1
 7319 2984 0000      		nop
 7320               	 ;  0 "" 2
 7321               	/* #NOAPP */
 7322               	.LBE421:
 7323               	.LBE420:
 7324               	.LM457:
 7325 2986 1996      		adiw r26,9
 7326 2988 ED91      		ld r30,X+
 7327 298a FC91      		ld r31,X
 7328 298c 1A97      		sbiw r26,9+1
 7329 298e 2081      		ld r18,Z
 7330 2990 1D96      		adiw r26,13
 7331 2992 8C91      		ld r24,X
 7332 2994 1D97      		sbiw r26,13
 7333 2996 4A01      		movw r8,r20
 7334               	.LVL88:
 7335 2998 00C0      		rjmp 2f
 7336 299a 880C      	1:	lsl r8
 7337 299c 991C      		rol r9
 7338 299e 8A95      	2:	dec r24
 7339 29a0 02F4      		brpl 1b
 7340 29a2 2829      		or r18,r8
 7341 29a4 2083      		st Z,r18
 7342 29a6 1796      		adiw r26,7
 7343 29a8 ED91      		ld r30,X+
 7344 29aa FC91      		ld r31,X
 7345 29ac 1897      		sbiw r26,7+1
 7346 29ae 2081      		ld r18,Z
 7347 29b0 1D96      		adiw r26,13
 7348 29b2 8C91      		ld r24,X
 7349 29b4 1D97      		sbiw r26,13
 7350 29b6 3A01      		movw r6,r20
 7351 29b8 00C0      		rjmp 2f
 7352 29ba 660C      	1:	lsl r6
 7353 29bc 771C      		rol r7
 7354 29be 8A95      	2:	dec r24
 7355 29c0 02F4      		brpl 1b
 7356 29c2 C301      		movw r24,r6
 7357 29c4 8095      		com r24
 7358 29c6 8223      		and r24,r18
 7359 29c8 8083      		st Z,r24
 7360 29ca 1B96      		adiw r26,11
 7361 29cc ED91      		ld r30,X+
 7362 29ce FC91      		ld r31,X
 7363 29d0 1C97      		sbiw r26,11+1
 7364               	.L202:
 7365 29d2 8081      		ld r24,Z
 7366 29d4 1D96      		adiw r26,13
 7367 29d6 2C91      		ld r18,X
 7368 29d8 1D97      		sbiw r26,13
 7369 29da 90E0      		ldi r25,lo8(0)
 7370 29dc 00C0      		rjmp 2f
 7371 29de 9595      	1:	asr r25
 7372 29e0 8795      		ror r24
 7373 29e2 2A95      	2:	dec r18
 7374 29e4 02F4      		brpl 1b
 7375 29e6 80FF      		sbrs r24,0
 7376 29e8 00C0      		rjmp .L202
 7377 29ea 1796      		adiw r26,7
 7378 29ec ED91      		ld r30,X+
 7379 29ee FC91      		ld r31,X
 7380 29f0 1897      		sbiw r26,7+1
 7381 29f2 2081      		ld r18,Z
 7382 29f4 1D96      		adiw r26,13
 7383 29f6 8C91      		ld r24,X
 7384 29f8 1D97      		sbiw r26,13
 7385 29fa 4A01      		movw r8,r20
 7386 29fc 00C0      		rjmp 2f
 7387 29fe 880C      	1:	lsl r8
 7388 2a00 991C      		rol r9
 7389 2a02 8A95      	2:	dec r24
 7390 2a04 02F4      		brpl 1b
 7391 2a06 2829      		or r18,r8
 7392 2a08 2083      		st Z,r18
 7393               	.LM458:
 7394 2a0a 1496      		adiw r26,4
 7395 2a0c ED91      		ld r30,X+
 7396 2a0e FC91      		ld r31,X
 7397 2a10 1597      		sbiw r26,4+1
 7398 2a12 2081      		ld r18,Z
 7399               	.LM459:
 7400 2a14 660F      		lsl r22
 7401               	.LM460:
 7402 2a16 CA01      		movw r24,r20
 7403 2a18 1696      		adiw r26,6
 7404 2a1a 0C90      		ld r0,X
 7405 2a1c 1697      		sbiw r26,6
 7406 2a1e 00C0      		rjmp 2f
 7407 2a20 880F      	1:	lsl r24
 7408 2a22 991F      		rol r25
 7409 2a24 0A94      	2:	dec r0
 7410 2a26 02F4      		brpl 1b
 7411 2a28 2823      		and r18,r24
 7412 2a2a 01F0      		breq .L203
 7413 2a2c 6160      		ori r22,lo8(1)
 7414               	.L203:
 7415               	.LBB418:
 7416               	.LBB419:
 7417               	.LM461:
 7418               	/* #APP */
 7419               	 ;  45 "i2csw.c" 1
 7420 2a2e 0000      		nop
 7421               	 ;  0 "" 2
 7422               	 ;  45 "i2csw.c" 1
 7423 2a30 0000      		nop
 7424               	 ;  0 "" 2
 7425               	 ;  45 "i2csw.c" 1
 7426 2a32 0000      		nop
 7427               	 ;  0 "" 2
 7428               	 ;  45 "i2csw.c" 1
 7429 2a34 0000      		nop
 7430               	 ;  0 "" 2
 7431               	 ;  45 "i2csw.c" 1
 7432 2a36 0000      		nop
 7433               	 ;  0 "" 2
 7434               	 ;  45 "i2csw.c" 1
 7435 2a38 0000      		nop
 7436               	 ;  0 "" 2
 7437               	 ;  45 "i2csw.c" 1
 7438 2a3a 0000      		nop
 7439               	 ;  0 "" 2
 7440               	 ;  45 "i2csw.c" 1
 7441 2a3c 0000      		nop
 7442               	 ;  0 "" 2
 7443               	 ;  45 "i2csw.c" 1
 7444 2a3e 0000      		nop
 7445               	 ;  0 "" 2
 7446               	/* #NOAPP */
 7447               	.LBE419:
 7448               	.LBE418:
 7449               	.LM462:
 7450 2a40 1996      		adiw r26,9
 7451 2a42 ED91      		ld r30,X+
 7452 2a44 FC91      		ld r31,X
 7453 2a46 1A97      		sbiw r26,9+1
 7454 2a48 2081      		ld r18,Z
 7455 2a4a 1D96      		adiw r26,13
 7456 2a4c 8C91      		ld r24,X
 7457 2a4e 1D97      		sbiw r26,13
 7458 2a50 3A01      		movw r6,r20
 7459 2a52 00C0      		rjmp 2f
 7460 2a54 660C      	1:	lsl r6
 7461 2a56 771C      		rol r7
 7462 2a58 8A95      	2:	dec r24
 7463 2a5a 02F4      		brpl 1b
 7464 2a5c C301      		movw r24,r6
 7465 2a5e 8095      		com r24
 7466 2a60 8223      		and r24,r18
 7467 2a62 8083      		st Z,r24
 7468 2a64 3150      		subi r19,1
 7469 2a66 00F0      		brcs .+2
 7470 2a68 00C0      		rjmp .L201
 7471               	.LM463:
 7472 2a6a ED91      		ld r30,X+
 7473 2a6c FC91      		ld r31,X
 7474 2a6e 1197      		sbiw r26,1
 7475 2a70 2081      		ld r18,Z
 7476 2a72 C801      		movw r24,r16
 7477 2a74 1696      		adiw r26,6
 7478 2a76 0C90      		ld r0,X
 7479 2a78 1697      		sbiw r26,6
 7480 2a7a 00C0      		rjmp 2f
 7481 2a7c 880F      	1:	lsl r24
 7482 2a7e 991F      		rol r25
 7483 2a80 0A94      	2:	dec r0
 7484 2a82 02F4      		brpl 1b
 7485 2a84 282B      		or r18,r24
 7486 2a86 2083      		st Z,r18
 7487               	.LM464:
 7488 2a88 CE15      		cp r28,r14
 7489 2a8a DF05      		cpc r29,r15
 7490 2a8c 01F0      		breq .+2
 7491 2a8e 00C0      		rjmp .L205
 7492               	.LM465:
 7493 2a90 1296      		adiw r26,2
 7494 2a92 ED91      		ld r30,X+
 7495 2a94 FC91      		ld r31,X
 7496 2a96 1397      		sbiw r26,2+1
 7497 2a98 2081      		ld r18,Z
 7498 2a9a C801      		movw r24,r16
 7499 2a9c 1696      		adiw r26,6
 7500 2a9e 0C90      		ld r0,X
 7501 2aa0 1697      		sbiw r26,6
 7502 2aa2 00C0      		rjmp 2f
 7503 2aa4 880F      	1:	lsl r24
 7504 2aa6 991F      		rol r25
 7505 2aa8 0A94      	2:	dec r0
 7506 2aaa 02F4      		brpl 1b
 7507 2aac 282B      		or r18,r24
 7508 2aae 2083      		st Z,r18
 7509               	.L206:
 7510               	.LBB416:
 7511               	.LBB417:
 7512               	.LM466:
 7513               	/* #APP */
 7514               	 ;  45 "i2csw.c" 1
 7515 2ab0 0000      		nop
 7516               	 ;  0 "" 2
 7517               	 ;  45 "i2csw.c" 1
 7518 2ab2 0000      		nop
 7519               	 ;  0 "" 2
 7520               	 ;  45 "i2csw.c" 1
 7521 2ab4 0000      		nop
 7522               	 ;  0 "" 2
 7523               	 ;  45 "i2csw.c" 1
 7524 2ab6 0000      		nop
 7525               	 ;  0 "" 2
 7526               	 ;  45 "i2csw.c" 1
 7527 2ab8 0000      		nop
 7528               	 ;  0 "" 2
 7529               	/* #NOAPP */
 7530               	.LBE417:
 7531               	.LBE416:
 7532               	.LM467:
 7533 2aba 1996      		adiw r26,9
 7534 2abc ED91      		ld r30,X+
 7535 2abe FC91      		ld r31,X
 7536 2ac0 1A97      		sbiw r26,9+1
 7537 2ac2 2081      		ld r18,Z
 7538 2ac4 1D96      		adiw r26,13
 7539 2ac6 8C91      		ld r24,X
 7540 2ac8 1D97      		sbiw r26,13
 7541 2aca 4A01      		movw r8,r20
 7542 2acc 00C0      		rjmp 2f
 7543 2ace 880C      	1:	lsl r8
 7544 2ad0 991C      		rol r9
 7545 2ad2 8A95      	2:	dec r24
 7546 2ad4 02F4      		brpl 1b
 7547 2ad6 2829      		or r18,r8
 7548 2ad8 2083      		st Z,r18
 7549 2ada 1796      		adiw r26,7
 7550 2adc ED91      		ld r30,X+
 7551 2ade FC91      		ld r31,X
 7552 2ae0 1897      		sbiw r26,7+1
 7553 2ae2 2081      		ld r18,Z
 7554 2ae4 1D96      		adiw r26,13
 7555 2ae6 8C91      		ld r24,X
 7556 2ae8 1D97      		sbiw r26,13
 7557 2aea 3A01      		movw r6,r20
 7558 2aec 00C0      		rjmp 2f
 7559 2aee 660C      	1:	lsl r6
 7560 2af0 771C      		rol r7
 7561 2af2 8A95      	2:	dec r24
 7562 2af4 02F4      		brpl 1b
 7563 2af6 C301      		movw r24,r6
 7564 2af8 8095      		com r24
 7565 2afa 8223      		and r24,r18
 7566 2afc 8083      		st Z,r24
 7567 2afe 1B96      		adiw r26,11
 7568 2b00 ED91      		ld r30,X+
 7569 2b02 FC91      		ld r31,X
 7570 2b04 1C97      		sbiw r26,11+1
 7571               	.L207:
 7572 2b06 8081      		ld r24,Z
 7573 2b08 1D96      		adiw r26,13
 7574 2b0a 2C91      		ld r18,X
 7575 2b0c 1D97      		sbiw r26,13
 7576 2b0e 90E0      		ldi r25,lo8(0)
 7577 2b10 00C0      		rjmp 2f
 7578 2b12 9595      	1:	asr r25
 7579 2b14 8795      		ror r24
 7580 2b16 2A95      	2:	dec r18
 7581 2b18 02F4      		brpl 1b
 7582 2b1a 80FF      		sbrs r24,0
 7583 2b1c 00C0      		rjmp .L207
 7584 2b1e 1796      		adiw r26,7
 7585 2b20 ED91      		ld r30,X+
 7586 2b22 FC91      		ld r31,X
 7587 2b24 1897      		sbiw r26,7+1
 7588 2b26 2081      		ld r18,Z
 7589 2b28 1D96      		adiw r26,13
 7590 2b2a 8C91      		ld r24,X
 7591 2b2c 1D97      		sbiw r26,13
 7592 2b2e 4A01      		movw r8,r20
 7593 2b30 00C0      		rjmp 2f
 7594 2b32 880C      	1:	lsl r8
 7595 2b34 991C      		rol r9
 7596 2b36 8A95      	2:	dec r24
 7597 2b38 02F4      		brpl 1b
 7598 2b3a 2829      		or r18,r8
 7599 2b3c 2083      		st Z,r18
 7600               	.LBB414:
 7601               	.LBB415:
 7602               	.LM468:
 7603               	/* #APP */
 7604               	 ;  45 "i2csw.c" 1
 7605 2b3e 0000      		nop
 7606               	 ;  0 "" 2
 7607               	 ;  45 "i2csw.c" 1
 7608 2b40 0000      		nop
 7609               	 ;  0 "" 2
 7610               	 ;  45 "i2csw.c" 1
 7611 2b42 0000      		nop
 7612               	 ;  0 "" 2
 7613               	 ;  45 "i2csw.c" 1
 7614 2b44 0000      		nop
 7615               	 ;  0 "" 2
 7616               	 ;  45 "i2csw.c" 1
 7617 2b46 0000      		nop
 7618               	 ;  0 "" 2
 7619               	 ;  45 "i2csw.c" 1
 7620 2b48 0000      		nop
 7621               	 ;  0 "" 2
 7622               	 ;  45 "i2csw.c" 1
 7623 2b4a 0000      		nop
 7624               	 ;  0 "" 2
 7625               	 ;  45 "i2csw.c" 1
 7626 2b4c 0000      		nop
 7627               	 ;  0 "" 2
 7628               	 ;  45 "i2csw.c" 1
 7629 2b4e 0000      		nop
 7630               	 ;  0 "" 2
 7631               	/* #NOAPP */
 7632               	.LBE415:
 7633               	.LBE414:
 7634               	.LM469:
 7635 2b50 1996      		adiw r26,9
 7636 2b52 ED91      		ld r30,X+
 7637 2b54 FC91      		ld r31,X
 7638 2b56 1A97      		sbiw r26,9+1
 7639 2b58 2081      		ld r18,Z
 7640 2b5a 1D96      		adiw r26,13
 7641 2b5c 8C91      		ld r24,X
 7642 2b5e 1D97      		sbiw r26,13
 7643 2b60 3A01      		movw r6,r20
 7644 2b62 00C0      		rjmp 2f
 7645 2b64 660C      	1:	lsl r6
 7646 2b66 771C      		rol r7
 7647 2b68 8A95      	2:	dec r24
 7648 2b6a 02F4      		brpl 1b
 7649 2b6c C301      		movw r24,r6
 7650 2b6e 8095      		com r24
 7651 2b70 8223      		and r24,r18
 7652 2b72 8083      		st Z,r24
 7653               	.LM470:
 7654 2b74 1296      		adiw r26,2
 7655 2b76 ED91      		ld r30,X+
 7656 2b78 FC91      		ld r31,X
 7657 2b7a 1397      		sbiw r26,2+1
 7658 2b7c 2081      		ld r18,Z
 7659 2b7e CA01      		movw r24,r20
 7660 2b80 1696      		adiw r26,6
 7661 2b82 0C90      		ld r0,X
 7662 2b84 1697      		sbiw r26,6
 7663 2b86 00C0      		rjmp 2f
 7664 2b88 880F      	1:	lsl r24
 7665 2b8a 991F      		rol r25
 7666 2b8c 0A94      	2:	dec r0
 7667 2b8e 02F4      		brpl 1b
 7668 2b90 282B      		or r18,r24
 7669 2b92 2083      		st Z,r18
 7670               	.LBE412:
 7671               	.LBE423:
 7672               	.LM471:
 7673 2b94 6883      		st Y,r22
 7674               	.LM472:
 7675 2b96 CC15      		cp r28,r12
 7676 2b98 DD05      		cpc r29,r13
 7677 2b9a 01F0      		breq .L200
 7678               	.LM473:
 7679 2b9c 2196      		adiw r28,1
 7680 2b9e 00C0      		rjmp .L208
 7681               	.LVL89:
 7682               	.L187:
 7683               	.LBB424:
 7684               	.LBB389:
 7685               	.LM474:
 7686 2ba0 1296      		adiw r26,2
 7687 2ba2 ED91      		ld r30,X+
 7688 2ba4 FC91      		ld r31,X
 7689 2ba6 1397      		sbiw r26,2+1
 7690 2ba8 2081      		ld r18,Z
 7691 2baa CB01      		movw r24,r22
 7692 2bac 1696      		adiw r26,6
 7693 2bae 0C90      		ld r0,X
 7694 2bb0 1697      		sbiw r26,6
 7695 2bb2 00C0      		rjmp 2f
 7696 2bb4 880F      	1:	lsl r24
 7697 2bb6 991F      		rol r25
 7698 2bb8 0A94      	2:	dec r0
 7699 2bba 02F4      		brpl 1b
 7700 2bbc 8095      		com r24
 7701 2bbe 8223      		and r24,r18
 7702 2bc0 8083      		st Z,r24
 7703 2bc2 00C0      		rjmp .L188
 7704               	.LVL90:
 7705               	.L178:
 7706               	.LBE389:
 7707               	.LBE424:
 7708               	.LBB425:
 7709               	.LBB375:
 7710 2bc4 1296      		adiw r26,2
 7711 2bc6 ED91      		ld r30,X+
 7712 2bc8 FC91      		ld r31,X
 7713 2bca 1397      		sbiw r26,2+1
 7714 2bcc 2081      		ld r18,Z
 7715 2bce CE01      		movw r24,r28
 7716 2bd0 1696      		adiw r26,6
 7717 2bd2 0C90      		ld r0,X
 7718 2bd4 1697      		sbiw r26,6
 7719 2bd6 00C0      		rjmp 2f
 7720 2bd8 880F      	1:	lsl r24
 7721 2bda 991F      		rol r25
 7722 2bdc 0A94      	2:	dec r0
 7723 2bde 02F4      		brpl 1b
 7724 2be0 8095      		com r24
 7725 2be2 8223      		and r24,r18
 7726 2be4 8083      		st Z,r24
 7727 2be6 00C0      		rjmp .L179
 7728               	.LVL91:
 7729               	.L200:
 7730               	.LBE375:
 7731               	.LBE425:
 7732               	.LM475:
 7733 2be8 1296      		adiw r26,2
 7734 2bea ED91      		ld r30,X+
 7735 2bec FC91      		ld r31,X
 7736 2bee 1397      		sbiw r26,2+1
 7737 2bf0 4081      		ld r20,Z
 7738 2bf2 21E0      		ldi r18,lo8(1)
 7739 2bf4 30E0      		ldi r19,hi8(1)
 7740 2bf6 C901      		movw r24,r18
 7741 2bf8 1696      		adiw r26,6
 7742 2bfa 0C90      		ld r0,X
 7743 2bfc 1697      		sbiw r26,6
 7744 2bfe 00C0      		rjmp 2f
 7745 2c00 880F      	1:	lsl r24
 7746 2c02 991F      		rol r25
 7747 2c04 0A94      	2:	dec r0
 7748 2c06 02F4      		brpl 1b
 7749 2c08 8095      		com r24
 7750 2c0a 8423      		and r24,r20
 7751 2c0c 8083      		st Z,r24
 7752               	.LBB426:
 7753               	.LBB427:
 7754               	.LM476:
 7755               	/* #APP */
 7756               	 ;  45 "i2csw.c" 1
 7757 2c0e 0000      		nop
 7758               	 ;  0 "" 2
 7759               	 ;  45 "i2csw.c" 1
 7760 2c10 0000      		nop
 7761               	 ;  0 "" 2
 7762               	 ;  45 "i2csw.c" 1
 7763 2c12 0000      		nop
 7764               	 ;  0 "" 2
 7765               	 ;  45 "i2csw.c" 1
 7766 2c14 0000      		nop
 7767               	 ;  0 "" 2
 7768               	 ;  45 "i2csw.c" 1
 7769 2c16 0000      		nop
 7770               	 ;  0 "" 2
 7771               	 ;  45 "i2csw.c" 1
 7772 2c18 0000      		nop
 7773               	 ;  0 "" 2
 7774               	 ;  45 "i2csw.c" 1
 7775 2c1a 0000      		nop
 7776               	 ;  0 "" 2
 7777               	 ;  45 "i2csw.c" 1
 7778 2c1c 0000      		nop
 7779               	 ;  0 "" 2
 7780               	 ;  45 "i2csw.c" 1
 7781 2c1e 0000      		nop
 7782               	 ;  0 "" 2
 7783               	/* #NOAPP */
 7784               	.LBE427:
 7785               	.LBE426:
 7786               	.LM477:
 7787 2c20 1996      		adiw r26,9
 7788 2c22 ED91      		ld r30,X+
 7789 2c24 FC91      		ld r31,X
 7790 2c26 1A97      		sbiw r26,9+1
 7791 2c28 4081      		ld r20,Z
 7792 2c2a 1D96      		adiw r26,13
 7793 2c2c 8C91      		ld r24,X
 7794 2c2e 1D97      		sbiw r26,13
 7795 2c30 4901      		movw r8,r18
 7796               	.LVL92:
 7797 2c32 00C0      		rjmp 2f
 7798 2c34 880C      	1:	lsl r8
 7799 2c36 991C      		rol r9
 7800 2c38 8A95      	2:	dec r24
 7801 2c3a 02F4      		brpl 1b
 7802 2c3c 4829      		or r20,r8
 7803 2c3e 4083      		st Z,r20
 7804 2c40 1796      		adiw r26,7
 7805 2c42 ED91      		ld r30,X+
 7806 2c44 FC91      		ld r31,X
 7807 2c46 1897      		sbiw r26,7+1
 7808 2c48 9081      		ld r25,Z
 7809 2c4a 1D96      		adiw r26,13
 7810 2c4c 8C91      		ld r24,X
 7811 2c4e 1D97      		sbiw r26,13
 7812 2c50 00C0      		rjmp 2f
 7813 2c52 220F      	1:	lsl r18
 7814 2c54 331F      		rol r19
 7815 2c56 8A95      	2:	dec r24
 7816 2c58 02F4      		brpl 1b
 7817 2c5a 2095      		com r18
 7818 2c5c 2923      		and r18,r25
 7819 2c5e 2083      		st Z,r18
 7820 2c60 1B96      		adiw r26,11
 7821 2c62 ED91      		ld r30,X+
 7822 2c64 FC91      		ld r31,X
 7823 2c66 1C97      		sbiw r26,11+1
 7824               	.L209:
 7825 2c68 8081      		ld r24,Z
 7826 2c6a 1D96      		adiw r26,13
 7827 2c6c 2C91      		ld r18,X
 7828 2c6e 1D97      		sbiw r26,13
 7829 2c70 90E0      		ldi r25,lo8(0)
 7830 2c72 00C0      		rjmp 2f
 7831 2c74 9595      	1:	asr r25
 7832 2c76 8795      		ror r24
 7833 2c78 2A95      	2:	dec r18
 7834 2c7a 02F4      		brpl 1b
 7835 2c7c 80FF      		sbrs r24,0
 7836 2c7e 00C0      		rjmp .L209
 7837 2c80 1796      		adiw r26,7
 7838 2c82 ED91      		ld r30,X+
 7839 2c84 FC91      		ld r31,X
 7840 2c86 1897      		sbiw r26,7+1
 7841 2c88 2081      		ld r18,Z
 7842 2c8a 1D96      		adiw r26,13
 7843 2c8c 8C91      		ld r24,X
 7844 2c8e 1D97      		sbiw r26,13
 7845 2c90 41E0      		ldi r20,lo8(1)
 7846 2c92 50E0      		ldi r21,hi8(1)
 7847 2c94 8A01      		movw r16,r20
 7848 2c96 00C0      		rjmp 2f
 7849 2c98 000F      	1:	lsl r16
 7850 2c9a 111F      		rol r17
 7851 2c9c 8A95      	2:	dec r24
 7852 2c9e 02F4      		brpl 1b
 7853 2ca0 C801      		movw r24,r16
 7854               	.LVL93:
 7855               	.L228:
 7856 2ca2 282B      		or r18,r24
 7857 2ca4 2083      		st Z,r18
 7858               	.LBB428:
 7859               	.LBB429:
 7860               	.LM478:
 7861               	/* #APP */
 7862               	 ;  45 "i2csw.c" 1
 7863 2ca6 0000      		nop
 7864               	 ;  0 "" 2
 7865               	 ;  45 "i2csw.c" 1
 7866 2ca8 0000      		nop
 7867               	 ;  0 "" 2
 7868               	 ;  45 "i2csw.c" 1
 7869 2caa 0000      		nop
 7870               	 ;  0 "" 2
 7871               	 ;  45 "i2csw.c" 1
 7872 2cac 0000      		nop
 7873               	 ;  0 "" 2
 7874               	 ;  45 "i2csw.c" 1
 7875 2cae 0000      		nop
 7876               	 ;  0 "" 2
 7877               	/* #NOAPP */
 7878               	.LBE429:
 7879               	.LBE428:
 7880               	.LM479:
 7881 2cb0 1296      		adiw r26,2
 7882 2cb2 ED91      		ld r30,X+
 7883 2cb4 FC91      		ld r31,X
 7884 2cb6 1397      		sbiw r26,2+1
 7885 2cb8 8081      		ld r24,Z
 7886 2cba 1696      		adiw r26,6
 7887 2cbc 0C90      		ld r0,X
 7888 2cbe 00C0      		rjmp 2f
 7889 2cc0 440F      	1:	lsl r20
 7890 2cc2 551F      		rol r21
 7891 2cc4 0A94      	2:	dec r0
 7892 2cc6 02F4      		brpl 1b
 7893 2cc8 842B      		or r24,r20
 7894 2cca 8083      		st Z,r24
 7895               	.LM480:
 7896 2ccc 8A2D      		mov r24,r10
 7897               	/* epilogue start */
 7898 2cce DF91      		pop r29
 7899 2cd0 CF91      		pop r28
 7900               	.LVL94:
 7901 2cd2 1F91      		pop r17
 7902 2cd4 0F91      		pop r16
 7903 2cd6 FF90      		pop r15
 7904 2cd8 EF90      		pop r14
 7905 2cda DF90      		pop r13
 7906 2cdc CF90      		pop r12
 7907               	.LVL95:
 7908 2cde BF90      		pop r11
 7909               	.LVL96:
 7910 2ce0 AF90      		pop r10
 7911               	.LVL97:
 7912 2ce2 9F90      		pop r9
 7913               	.LVL98:
 7914 2ce4 8F90      		pop r8
 7915               	.LVL99:
 7916 2ce6 7F90      		pop r7
 7917 2ce8 6F90      		pop r6
 7918 2cea 0895      		ret
 7919               	.LVL100:
 7920               	.L195:
 7921               	.LBB430:
 7922               	.LBB410:
 7923               	.LM481:
 7924 2cec 1296      		adiw r26,2
 7925 2cee ED91      		ld r30,X+
 7926 2cf0 FC91      		ld r31,X
 7927 2cf2 1397      		sbiw r26,2+1
 7928 2cf4 2081      		ld r18,Z
 7929 2cf6 CE01      		movw r24,r28
 7930 2cf8 1696      		adiw r26,6
 7931 2cfa 0C90      		ld r0,X
 7932 2cfc 1697      		sbiw r26,6
 7933 2cfe 00C0      		rjmp 2f
 7934 2d00 880F      	1:	lsl r24
 7935 2d02 991F      		rol r25
 7936 2d04 0A94      	2:	dec r0
 7937 2d06 02F4      		brpl 1b
 7938 2d08 8095      		com r24
 7939 2d0a 8223      		and r24,r18
 7940 2d0c 8083      		st Z,r24
 7941 2d0e 00C0      		rjmp .L196
 7942               	.LVL101:
 7943               	.L211:
 7944               	.LBE410:
 7945               	.LBE430:
 7946               	.LM482:
 7947 2d10 1296      		adiw r26,2
 7948 2d12 ED91      		ld r30,X+
 7949 2d14 FC91      		ld r31,X
 7950 2d16 1397      		sbiw r26,2+1
 7951 2d18 2081      		ld r18,Z
 7952 2d1a CE01      		movw r24,r28
 7953 2d1c 1696      		adiw r26,6
 7954 2d1e 0C90      		ld r0,X
 7955 2d20 1697      		sbiw r26,6
 7956 2d22 00C0      		rjmp 2f
 7957 2d24 880F      	1:	lsl r24
 7958 2d26 991F      		rol r25
 7959 2d28 0A94      	2:	dec r0
 7960 2d2a 02F4      		brpl 1b
 7961 2d2c 8095      		com r24
 7962 2d2e 8223      		and r24,r18
 7963 2d30 8083      		st Z,r24
 7964               	.LBB431:
 7965               	.LBB432:
 7966               	.LM483:
 7967               	/* #APP */
 7968               	 ;  45 "i2csw.c" 1
 7969 2d32 0000      		nop
 7970               	 ;  0 "" 2
 7971               	 ;  45 "i2csw.c" 1
 7972 2d34 0000      		nop
 7973               	 ;  0 "" 2
 7974               	 ;  45 "i2csw.c" 1
 7975 2d36 0000      		nop
 7976               	 ;  0 "" 2
 7977               	 ;  45 "i2csw.c" 1
 7978 2d38 0000      		nop
 7979               	 ;  0 "" 2
 7980               	 ;  45 "i2csw.c" 1
 7981 2d3a 0000      		nop
 7982               	 ;  0 "" 2
 7983               	 ;  45 "i2csw.c" 1
 7984 2d3c 0000      		nop
 7985               	 ;  0 "" 2
 7986               	 ;  45 "i2csw.c" 1
 7987 2d3e 0000      		nop
 7988               	 ;  0 "" 2
 7989               	 ;  45 "i2csw.c" 1
 7990 2d40 0000      		nop
 7991               	 ;  0 "" 2
 7992               	 ;  45 "i2csw.c" 1
 7993 2d42 0000      		nop
 7994               	 ;  0 "" 2
 7995               	/* #NOAPP */
 7996               	.LBE432:
 7997               	.LBE431:
 7998               	.LM484:
 7999 2d44 1996      		adiw r26,9
 8000 2d46 ED91      		ld r30,X+
 8001 2d48 FC91      		ld r31,X
 8002 2d4a 1A97      		sbiw r26,9+1
 8003 2d4c 2081      		ld r18,Z
 8004 2d4e 1D96      		adiw r26,13
 8005 2d50 8C91      		ld r24,X
 8006 2d52 1D97      		sbiw r26,13
 8007 2d54 AE01      		movw r20,r28
 8008 2d56 00C0      		rjmp 2f
 8009 2d58 440F      	1:	lsl r20
 8010 2d5a 551F      		rol r21
 8011 2d5c 8A95      	2:	dec r24
 8012 2d5e 02F4      		brpl 1b
 8013 2d60 242B      		or r18,r20
 8014 2d62 2083      		st Z,r18
 8015 2d64 1796      		adiw r26,7
 8016 2d66 ED91      		ld r30,X+
 8017 2d68 FC91      		ld r31,X
 8018 2d6a 1897      		sbiw r26,7+1
 8019 2d6c 9081      		ld r25,Z
 8020 2d6e 1D96      		adiw r26,13
 8021 2d70 8C91      		ld r24,X
 8022 2d72 1D97      		sbiw r26,13
 8023 2d74 00C0      		rjmp 2f
 8024 2d76 CC0F      	1:	lsl r28
 8025 2d78 DD1F      		rol r29
 8026 2d7a 8A95      	2:	dec r24
 8027 2d7c 02F4      		brpl 1b
 8028 2d7e BE01      		movw r22,r28
 8029 2d80 6095      		com r22
 8030 2d82 862F      		mov r24,r22
 8031 2d84 8923      		and r24,r25
 8032 2d86 8083      		st Z,r24
 8033 2d88 1B96      		adiw r26,11
 8034 2d8a ED91      		ld r30,X+
 8035 2d8c FC91      		ld r31,X
 8036 2d8e 1C97      		sbiw r26,11+1
 8037               	.L185:
 8038 2d90 8081      		ld r24,Z
 8039 2d92 1D96      		adiw r26,13
 8040 2d94 2C91      		ld r18,X
 8041 2d96 1D97      		sbiw r26,13
 8042 2d98 90E0      		ldi r25,lo8(0)
 8043 2d9a 00C0      		rjmp 2f
 8044 2d9c 9595      	1:	asr r25
 8045 2d9e 8795      		ror r24
 8046 2da0 2A95      	2:	dec r18
 8047 2da2 02F4      		brpl 1b
 8048 2da4 80FF      		sbrs r24,0
 8049 2da6 00C0      		rjmp .L185
 8050 2da8 1796      		adiw r26,7
 8051 2daa ED91      		ld r30,X+
 8052 2dac FC91      		ld r31,X
 8053 2dae 1897      		sbiw r26,7+1
 8054 2db0 2081      		ld r18,Z
 8055 2db2 1D96      		adiw r26,13
 8056 2db4 8C91      		ld r24,X
 8057 2db6 1D97      		sbiw r26,13
 8058 2db8 41E0      		ldi r20,lo8(1)
 8059 2dba 50E0      		ldi r21,hi8(1)
 8060 2dbc 3A01      		movw r6,r20
 8061 2dbe 00C0      		rjmp 2f
 8062 2dc0 660C      	1:	lsl r6
 8063 2dc2 771C      		rol r7
 8064 2dc4 8A95      	2:	dec r24
 8065 2dc6 02F4      		brpl 1b
 8066 2dc8 C301      		movw r24,r6
 8067 2dca 00C0      		rjmp .L228
 8068               	.LVL102:
 8069               	.L205:
 8070               	.LBB433:
 8071               	.LBB422:
 8072               	.LM485:
 8073 2dcc 1296      		adiw r26,2
 8074 2dce ED91      		ld r30,X+
 8075 2dd0 FC91      		ld r31,X
 8076 2dd2 1397      		sbiw r26,2+1
 8077 2dd4 2081      		ld r18,Z
 8078 2dd6 C801      		movw r24,r16
 8079 2dd8 1696      		adiw r26,6
 8080 2dda 0C90      		ld r0,X
 8081 2ddc 1697      		sbiw r26,6
 8082 2dde 00C0      		rjmp 2f
 8083 2de0 880F      	1:	lsl r24
 8084 2de2 991F      		rol r25
 8085 2de4 0A94      	2:	dec r0
 8086 2de6 02F4      		brpl 1b
 8087 2de8 8095      		com r24
 8088 2dea 8223      		and r24,r18
 8089 2dec 8083      		st Z,r24
 8090 2dee 00C0      		rjmp .L206
 8091               	.LBE422:
 8092               	.LBE433:
 8093               	.LFE11:
 8095               		.section	.progmem.data,"a",@progbits
 8098               	__c.4127:
 8099 0000 4465 6661 		.string	"Default"
 8099      756C 7400 
 8102               	__c.4124:
 8103 0008 7374 6F70 		.string	"stop_bit"
 8103      5F62 6974 
 8103      00
 8106               	__c.4120:
 8107 0011 7469 6D65 		.string	"timeout stop"
 8107      6F75 7420 
 8107      7374 6F70 
 8107      00
 8110               	__c.4117:
 8111 001e 7469 6D65 		.string	"timeout"
 8111      6F75 7400 
 8114               	__c.4104:
 8115 0026 5752 4720 		.string	"WRG ADDRS\n\r"
 8115      4144 4452 
 8115      530A 0D00 
 8116               		.lcomm i2c_context,208
 8117               		.comm sda_pin,1,1
 8118               		.comm scl_pin,1,1
 8119               		.comm IPMI0_A_ws,116,1
 8248               	.Letext0:
DEFINED SYMBOLS
                            *ABS*:00000000 i2csw.c
C:\DOCUME~1\poliveir\LOCALS~1\Temp/ccdtQUg8.s:2      *ABS*:0000003f __SREG__
C:\DOCUME~1\poliveir\LOCALS~1\Temp/ccdtQUg8.s:3      *ABS*:0000003e __SP_H__
C:\DOCUME~1\poliveir\LOCALS~1\Temp/ccdtQUg8.s:4      *ABS*:0000003d __SP_L__
C:\DOCUME~1\poliveir\LOCALS~1\Temp/ccdtQUg8.s:5      *ABS*:00000034 __CCP__
C:\DOCUME~1\poliveir\LOCALS~1\Temp/ccdtQUg8.s:6      *ABS*:00000000 __tmp_reg__
C:\DOCUME~1\poliveir\LOCALS~1\Temp/ccdtQUg8.s:7      *ABS*:00000001 __zero_reg__
C:\DOCUME~1\poliveir\LOCALS~1\Temp/ccdtQUg8.s:18     .text:00000000 clk_delay
C:\DOCUME~1\poliveir\LOCALS~1\Temp/ccdtQUg8.s:43     .text:0000000c i2cPutbyte
C:\DOCUME~1\poliveir\LOCALS~1\Temp/ccdtQUg8.s:525    .text:000002b8 i2cGetbyte
C:\DOCUME~1\poliveir\LOCALS~1\Temp/ccdtQUg8.s:995    .text:0000055e getBus
                             .bss:00000000 i2c_context
C:\DOCUME~1\poliveir\LOCALS~1\Temp/ccdtQUg8.s:1017   .text:0000056e i2cInitA
C:\DOCUME~1\poliveir\LOCALS~1\Temp/ccdtQUg8.s:1190   .text:00000692 i2cInitB
C:\DOCUME~1\poliveir\LOCALS~1\Temp/ccdtQUg8.s:1357   .text:000007aa i2cTemp
C:\DOCUME~1\poliveir\LOCALS~1\Temp/ccdtQUg8.s:1525   .text:000008c4 IPMB0_A_READ
                            *COM*:00000074 IPMI0_A_ws
                            *COM*:00000001 sda_pin
                            *COM*:00000001 scl_pin
C:\DOCUME~1\poliveir\LOCALS~1\Temp/ccdtQUg8.s:8106   .progmem.data:00000011 __c.4120
C:\DOCUME~1\poliveir\LOCALS~1\Temp/ccdtQUg8.s:8098   .progmem.data:00000000 __c.4127
C:\DOCUME~1\poliveir\LOCALS~1\Temp/ccdtQUg8.s:8110   .progmem.data:0000001e __c.4117
C:\DOCUME~1\poliveir\LOCALS~1\Temp/ccdtQUg8.s:8102   .progmem.data:00000008 __c.4124
C:\DOCUME~1\poliveir\LOCALS~1\Temp/ccdtQUg8.s:8114   .progmem.data:00000026 __c.4104
C:\DOCUME~1\poliveir\LOCALS~1\Temp/ccdtQUg8.s:1928   .text:00000b88 i2c_bus_init
C:\DOCUME~1\poliveir\LOCALS~1\Temp/ccdtQUg8.s:2242   .text:00000dec i2c_Send
C:\DOCUME~1\poliveir\LOCALS~1\Temp/ccdtQUg8.s:3820   .text:0000166a i2c_master_write
C:\DOCUME~1\poliveir\LOCALS~1\Temp/ccdtQUg8.s:3888   .text:000016c2 i2c_Read
C:\DOCUME~1\poliveir\LOCALS~1\Temp/ccdtQUg8.s:5274   .text:00001e1e i2c_master_read
C:\DOCUME~1\poliveir\LOCALS~1\Temp/ccdtQUg8.s:5433   .text:00001f1a i2cMasterReceive

UNDEFINED SYMBOLS
printfr
printf
ws_set_state
__do_copy_data
__do_clear_bss
